	.cpu cortex-m4
	.eabi_attribute 27, 1
	.eabi_attribute 28, 1
	.eabi_attribute 20, 1
	.eabi_attribute 21, 1
	.eabi_attribute 23, 3
	.eabi_attribute 24, 1
	.eabi_attribute 25, 1
	.eabi_attribute 26, 1
	.eabi_attribute 30, 4
	.eabi_attribute 34, 1
	.eabi_attribute 18, 4
	.file	"uECC.c"
	.text
.Ltext0:
	.section	.text.uECC_vli_add,"ax",%progbits
	.align	1
	.syntax unified
	.thumb
	.thumb_func
	.fpu fpv4-sp-d16
	.type	uECC_vli_add, %function
uECC_vli_add:
.LVL0:
.LFB1:
	.file 1 "/home/matteo/Desktop/Reti di Sensori Wireless per IOT/Progetto/nrf5_SDK_for_Mesh_v4.0.0_src/external/micro-ecc/asm_arm.inc"
	.loc 1 49 62 view -0
	@ args = 0, pretend = 0, frame = 0
	@ frame_needed = 0, uses_anonymous_args = 0
	.loc 1 52 5 view .LVU1
	.loc 1 52 37 is_stmt 0 view .LVU2
	rsb	r3, r3, #8
.LVL1:
	.loc 1 52 54 view .LVU3
	lsls	r3, r3, #3
	.loc 1 49 62 view .LVU4
	push	{r4, r5, r6, lr}
.LCFI0:
	.loc 1 52 58 view .LVU5
	adds	r3, r3, #1
.LVL2:
	.loc 1 57 5 is_stmt 1 view .LVU6
	.loc 1 58 5 view .LVU7
	.loc 1 59 5 view .LVU8
	.loc 1 61 5 view .LVU9
	mov	r4, r0
	.syntax unified
@ 61 "/home/matteo/Desktop/Reti di Sensori Wireless per IOT/Progetto/nrf5_SDK_for_Mesh_v4.0.0_src/external/micro-ecc/asm_arm.inc" 1
	.syntax unified 
	movs r0, #0 
	adr r5, 1f 
	.align 4 
	adds r3, r5 
	ldmia r1!, {r5} 
	ldmia r2!, {r6} 
	adds r5, r6 
	stmia r4!, {r5} 
	bx r3 
	1: 
	ldmia r1!, {r5} 
	ldmia r2!, {r6} 
	adcs r5, r6 
	stmia r4!, {r5} 
	ldmia r1!, {r5} 
	ldmia r2!, {r6} 
	adcs r5, r6 
	stmia r4!, {r5} 
	ldmia r1!, {r5} 
	ldmia r2!, {r6} 
	adcs r5, r6 
	stmia r4!, {r5} 
	ldmia r1!, {r5} 
	ldmia r2!, {r6} 
	adcs r5, r6 
	stmia r4!, {r5} 
	ldmia r1!, {r5} 
	ldmia r2!, {r6} 
	adcs r5, r6 
	stmia r4!, {r5} 
	ldmia r1!, {r5} 
	ldmia r2!, {r6} 
	adcs r5, r6 
	stmia r4!, {r5} 
	ldmia r1!, {r5} 
	ldmia r2!, {r6} 
	adcs r5, r6 
	stmia r4!, {r5} 
	adcs r0, r0 
	
@ 0 "" 2
.LVL3:
	.loc 1 96 5 view .LVU10
	.loc 1 97 1 is_stmt 0 view .LVU11
	.thumb
	.syntax unified
	pop	{r4, r5, r6, pc}
.LFE1:
	.size	uECC_vli_add, .-uECC_vli_add
	.section	.text.uECC_vli_sub,"ax",%progbits
	.align	1
	.syntax unified
	.thumb
	.thumb_func
	.fpu fpv4-sp-d16
	.type	uECC_vli_sub, %function
uECC_vli_sub:
.LVL4:
.LFB2:
	.loc 1 103 62 is_stmt 1 view -0
	@ args = 0, pretend = 0, frame = 0
	@ frame_needed = 0, uses_anonymous_args = 0
	.loc 1 106 5 view .LVU13
	.loc 1 106 37 is_stmt 0 view .LVU14
	rsb	r3, r3, #8
.LVL5:
	.loc 1 106 54 view .LVU15
	lsls	r3, r3, #3
	.loc 1 103 62 view .LVU16
	push	{r4, r5, r6, lr}
.LCFI1:
	.loc 1 106 58 view .LVU17
	adds	r3, r3, #1
.LVL6:
	.loc 1 111 5 is_stmt 1 view .LVU18
	.loc 1 112 5 view .LVU19
	.loc 1 113 5 view .LVU20
	.loc 1 115 5 view .LVU21
	.syntax unified
@ 115 "/home/matteo/Desktop/Reti di Sensori Wireless per IOT/Progetto/nrf5_SDK_for_Mesh_v4.0.0_src/external/micro-ecc/asm_arm.inc" 1
	.syntax unified 
	movs r4, #0 
	adr r5, 1f 
	.align 4 
	adds r3, r5 
	ldmia r1!, {r5} 
	ldmia r2!, {r6} 
	subs r5, r6 
	stmia r0!, {r5} 
	bx r3 
	1: 
	ldmia r1!, {r5} 
	ldmia r2!, {r6} 
	sbcs r5, r6 
	stmia r0!, {r5} 
	ldmia r1!, {r5} 
	ldmia r2!, {r6} 
	sbcs r5, r6 
	stmia r0!, {r5} 
	ldmia r1!, {r5} 
	ldmia r2!, {r6} 
	sbcs r5, r6 
	stmia r0!, {r5} 
	ldmia r1!, {r5} 
	ldmia r2!, {r6} 
	sbcs r5, r6 
	stmia r0!, {r5} 
	ldmia r1!, {r5} 
	ldmia r2!, {r6} 
	sbcs r5, r6 
	stmia r0!, {r5} 
	ldmia r1!, {r5} 
	ldmia r2!, {r6} 
	sbcs r5, r6 
	stmia r0!, {r5} 
	ldmia r1!, {r5} 
	ldmia r2!, {r6} 
	sbcs r5, r6 
	stmia r0!, {r5} 
	adcs r4, r4 
	
@ 0 "" 2
.LVL7:
	.loc 1 150 5 view .LVU22
	.loc 1 152 1 is_stmt 0 view .LVU23
	.thumb
	.syntax unified
	clz	r0, r4
	lsrs	r0, r0, #5
	pop	{r4, r5, r6, pc}
	.loc 1 152 1 view .LVU24
.LFE2:
	.size	uECC_vli_sub, .-uECC_vli_sub
	.section	.text.uECC_vli_mult,"ax",%progbits
	.align	1
	.syntax unified
	.thumb
	.thumb_func
	.fpu fpv4-sp-d16
	.type	uECC_vli_mult, %function
uECC_vli_mult:
.LVL8:
.LFB3:
	.loc 1 891 56 is_stmt 1 view -0
	@ args = 0, pretend = 0, frame = 0
	@ frame_needed = 0, uses_anonymous_args = 0
	.loc 1 893 5 view .LVU26
	.loc 1 894 5 view .LVU27
	.loc 1 895 5 view .LVU28
	.loc 1 896 5 view .LVU29
	.loc 1 897 5 view .LVU30
	.loc 1 898 5 view .LVU31
	.loc 1 900 5 view .LVU32
	.loc 1 891 56 is_stmt 0 view .LVU33
	push	{r4, r5, r6, r7, r8, lr}
.LCFI2:
	.loc 1 947 39 view .LVU34
	subs	r3, r3, #1
.LVL9:
	.loc 1 900 5 view .LVU35
	movs	r4, #0
	.loc 1 947 44 view .LVU36
	lsls	r3, r3, #2
	.loc 1 900 5 view .LVU37
	mov	ip, r4
	mov	lr, r4
	mov	r8, r4
	.syntax unified
@ 900 "/home/matteo/Desktop/Reti di Sensori Wireless per IOT/Progetto/nrf5_SDK_for_Mesh_v4.0.0_src/external/micro-ecc/asm_arm.inc" 1
	.syntax unified 
	1: 
	movs r5, #0 
	b 3f 
	2: 
	movs r5, r8 
	subs r5, r3 
	3: 
	subs r6, r8, r5 
	ldr r7, [r2, r6] 
	ldr r6, [r1, r5] 
	umull r6, r7, r6, r7 
	adds r4, r4, r6 
	adcs ip, ip, r7 
	adcs lr, lr, #0 
	adds r5, #4 
	cmp r5, r3 
	bgt 4f 
	cmp r5, r8 
	ble 3b 
	4: 
	str r4, [r0, r8] 
	mov r4, ip 
	mov ip, lr 
	movs lr, #0 
	adds r8, #4 
	cmp r8, r3 
	ble 1b 
	cmp r8, r3, lsl #1 
	ble 2b 
	str r4, [r0, r8] 
	
@ 0 "" 2
.LVL10:
	.loc 1 1051 1 view .LVU38
	.thumb
	.syntax unified
	pop	{r4, r5, r6, r7, r8, pc}
.LFE3:
	.size	uECC_vli_mult, .-uECC_vli_mult
	.section	.text.uECC_vli_clear,"ax",%progbits
	.align	1
	.syntax unified
	.thumb
	.thumb_func
	.fpu fpv4-sp-d16
	.type	uECC_vli_clear, %function
uECC_vli_clear:
.LVL11:
.LFB8:
	.file 2 "/home/matteo/Desktop/Reti di Sensori Wireless per IOT/Progetto/nrf5_SDK_for_Mesh_v4.0.0_src/external/micro-ecc/uECC.c"
	.loc 2 213 75 is_stmt 1 view -0
	@ args = 0, pretend = 0, frame = 0
	@ frame_needed = 0, uses_anonymous_args = 0
	.loc 2 214 5 view .LVU40
	.loc 2 215 5 view .LVU41
	.loc 2 215 5 is_stmt 0 view .LVU42
	movs	r3, #0
	.loc 2 213 75 view .LVU43
	push	{r4, lr}
.LCFI3:
	.loc 2 216 16 view .LVU44
	mov	r4, r3
.LVL12:
.L5:
	.loc 2 215 17 is_stmt 1 discriminator 1 view .LVU45
	.loc 2 215 5 is_stmt 0 discriminator 1 view .LVU46
	sxtb	r2, r3
	cmp	r1, r2
	bgt	.L6
	.loc 2 218 1 view .LVU47
	pop	{r4, pc}
.L6:
	.loc 2 216 9 is_stmt 1 discriminator 3 view .LVU48
	.loc 2 216 16 is_stmt 0 discriminator 3 view .LVU49
	str	r4, [r0, r3, lsl #2]
	.loc 2 215 32 is_stmt 1 discriminator 3 view .LVU50
.LVL13:
	.loc 2 215 32 is_stmt 0 discriminator 3 view .LVU51
	adds	r3, r3, #1
.LVL14:
	.loc 2 215 32 discriminator 3 view .LVU52
	b	.L5
.LFE8:
	.size	uECC_vli_clear, .-uECC_vli_clear
	.section	.text.uECC_vli_isZero,"ax",%progbits
	.align	1
	.syntax unified
	.thumb
	.thumb_func
	.fpu fpv4-sp-d16
	.type	uECC_vli_isZero, %function
uECC_vli_isZero:
.LVL15:
.LFB9:
	.loc 2 223 89 is_stmt 1 view -0
	@ args = 0, pretend = 0, frame = 0
	@ frame_needed = 0, uses_anonymous_args = 0
	.loc 2 224 5 view .LVU54
	.loc 2 225 5 view .LVU55
	.loc 2 226 5 view .LVU56
	.loc 2 223 89 is_stmt 0 view .LVU57
	push	{r4, lr}
.LCFI4:
	.loc 2 226 5 view .LVU58
	movs	r3, #0
	.loc 2 224 17 view .LVU59
	mov	r2, r3
.LVL16:
.L8:
	.loc 2 226 17 is_stmt 1 discriminator 1 view .LVU60
	.loc 2 226 5 is_stmt 0 discriminator 1 view .LVU61
	sxtb	r4, r3
	cmp	r1, r4
	bgt	.L9
	.loc 2 229 5 is_stmt 1 view .LVU62
	.loc 2 230 1 is_stmt 0 view .LVU63
	clz	r0, r2
.LVL17:
	.loc 2 230 1 view .LVU64
	lsrs	r0, r0, #5
	pop	{r4, pc}
.LVL18:
.L9:
	.loc 2 227 9 is_stmt 1 discriminator 3 view .LVU65
	.loc 2 227 14 is_stmt 0 discriminator 3 view .LVU66
	ldr	r4, [r0, r3, lsl #2]
	adds	r3, r3, #1
.LVL19:
	.loc 2 227 14 discriminator 3 view .LVU67
	orrs	r2, r2, r4
.LVL20:
	.loc 2 226 32 is_stmt 1 discriminator 3 view .LVU68
	.loc 2 226 32 is_stmt 0 discriminator 3 view .LVU69
	b	.L8
.LFE9:
	.size	uECC_vli_isZero, .-uECC_vli_isZero
	.section	.text.uECC_vli_testBit,"ax",%progbits
	.align	1
	.syntax unified
	.thumb
	.thumb_func
	.fpu fpv4-sp-d16
	.type	uECC_vli_testBit, %function
uECC_vli_testBit:
.LVL21:
.LFB10:
	.loc 2 233 83 is_stmt 1 view -0
	@ args = 0, pretend = 0, frame = 0
	@ frame_needed = 0, uses_anonymous_args = 0
	@ link register save eliminated.
	.loc 2 234 5 view .LVU71
	.loc 2 234 16 is_stmt 0 view .LVU72
	asrs	r2, r1, #5
	.loc 2 234 64 view .LVU73
	movs	r3, #1
	.loc 2 234 46 view .LVU74
	ldr	r0, [r0, r2, lsl #2]
.LVL22:
	.loc 2 234 72 view .LVU75
	and	r1, r1, #31
.LVL23:
	.loc 2 234 64 view .LVU76
	lsl	r1, r3, r1
	.loc 2 235 1 view .LVU77
	ands	r0, r0, r1
	bx	lr
.LFE10:
	.size	uECC_vli_testBit, .-uECC_vli_testBit
	.section	.text.uECC_vli_numBits,"ax",%progbits
	.align	1
	.syntax unified
	.thumb
	.thumb_func
	.fpu fpv4-sp-d16
	.type	uECC_vli_numBits, %function
uECC_vli_numBits:
.LVL24:
.LFB12:
	.loc 2 249 95 is_stmt 1 view -0
	@ args = 0, pretend = 0, frame = 0
	@ frame_needed = 0, uses_anonymous_args = 0
	.loc 2 250 5 view .LVU79
	.loc 2 251 5 view .LVU80
	.loc 2 253 5 view .LVU81
.LBB18:
.LBI18:
	.loc 2 238 20 view .LVU82
.LBB19:
	.loc 2 239 5 view .LVU83
	.loc 2 242 5 view .LVU84
	.loc 2 242 24 is_stmt 0 view .LVU85
	subs	r1, r1, #1
.LVL25:
	.loc 2 242 24 view .LVU86
.LBE19:
.LBE18:
	.loc 2 249 95 view .LVU87
	push	{r4, lr}
.LCFI5:
	sxtb	r1, r1
.LBB21:
.LBB20:
	.loc 2 242 42 view .LVU88
	adds	r4, r0, #4
.LVL26:
.L13:
	.loc 2 242 29 is_stmt 1 view .LVU89
	.loc 2 242 5 is_stmt 0 view .LVU90
	lsls	r2, r1, #24
	uxtb	r3, r1
	bmi	.L12
	subs	r1, r1, #1
.LVL27:
	.loc 2 242 36 view .LVU91
	ldr	r2, [r4, r1, lsl #2]
	cmp	r2, #0
	beq	.L13
.L12:
	.loc 2 245 5 is_stmt 1 view .LVU92
	.loc 2 245 15 is_stmt 0 view .LVU93
	adds	r3, r3, #1
.LVL28:
	.loc 2 245 15 view .LVU94
	sxtb	r3, r3
.LVL29:
	.loc 2 245 15 view .LVU95
.LBE20:
.LBE21:
	.loc 2 254 5 is_stmt 1 view .LVU96
	.loc 2 254 8 is_stmt 0 view .LVU97
	cbz	r3, .L17
	.loc 2 258 5 is_stmt 1 view .LVU98
	.loc 2 258 16 is_stmt 0 view .LVU99
	add	r2, r3, #1073741824
	subs	r2, r2, #1
	.loc 2 258 11 view .LVU100
	ldr	r2, [r0, r2, lsl #2]
.LVL30:
	.loc 2 259 5 is_stmt 1 view .LVU101
	.loc 2 259 12 is_stmt 0 view .LVU102
	movs	r0, #0
.LVL31:
.L15:
	.loc 2 259 17 is_stmt 1 discriminator 1 view .LVU103
	.loc 2 259 5 is_stmt 0 discriminator 1 view .LVU104
	cbnz	r2, .L16
	.loc 2 263 5 is_stmt 1 view .LVU105
	.loc 2 263 38 is_stmt 0 view .LVU106
	subs	r3, r3, #1
.LVL32:
	.loc 2 263 68 view .LVU107
	add	r3, r0, r3, lsl #5
.LVL33:
	.loc 2 263 68 view .LVU108
	sxth	r0, r3
.LVL34:
.L14:
	.loc 2 264 1 view .LVU109
	pop	{r4, pc}
.LVL35:
.L16:
	.loc 2 260 9 is_stmt 1 discriminator 3 view .LVU110
	.loc 2 260 15 is_stmt 0 discriminator 3 view .LVU111
	lsrs	r2, r2, #1
.LVL36:
	.loc 2 259 24 is_stmt 1 discriminator 3 view .LVU112
	adds	r0, r0, #1
.LVL37:
	.loc 2 259 24 is_stmt 0 discriminator 3 view .LVU113
	b	.L15
.LVL38:
.L17:
	.loc 2 255 16 view .LVU114
	mov	r0, r3
.LVL39:
	.loc 2 255 16 view .LVU115
	b	.L14
.LFE12:
	.size	uECC_vli_numBits, .-uECC_vli_numBits
	.section	.text.uECC_vli_set,"ax",%progbits
	.align	1
	.syntax unified
	.thumb
	.thumb_func
	.fpu fpv4-sp-d16
	.type	uECC_vli_set, %function
uECC_vli_set:
.LVL40:
.LFB13:
	.loc 2 268 98 is_stmt 1 view -0
	@ args = 0, pretend = 0, frame = 0
	@ frame_needed = 0, uses_anonymous_args = 0
	.loc 2 269 5 view .LVU117
	.loc 2 270 5 view .LVU118
	.loc 2 268 98 is_stmt 0 view .LVU119
	push	{r4, lr}
.LCFI6:
	.loc 2 270 5 view .LVU120
	movs	r3, #0
.LVL41:
.L22:
	.loc 2 270 17 is_stmt 1 discriminator 1 view .LVU121
	.loc 2 270 5 is_stmt 0 discriminator 1 view .LVU122
	sxtb	r4, r3
	cmp	r2, r4
	bgt	.L23
	.loc 2 273 1 view .LVU123
	pop	{r4, pc}
.L23:
	.loc 2 271 9 is_stmt 1 discriminator 3 view .LVU124
	.loc 2 271 22 is_stmt 0 discriminator 3 view .LVU125
	ldr	r4, [r1, r3, lsl #2]
	.loc 2 271 17 discriminator 3 view .LVU126
	str	r4, [r0, r3, lsl #2]
	.loc 2 270 32 is_stmt 1 discriminator 3 view .LVU127
.LVL42:
	.loc 2 270 32 is_stmt 0 discriminator 3 view .LVU128
	adds	r3, r3, #1
.LVL43:
	.loc 2 270 32 discriminator 3 view .LVU129
	b	.L22
.LFE13:
	.size	uECC_vli_set, .-uECC_vli_set
	.section	.text.uECC_vli_cmp_unsafe,"ax",%progbits
	.align	1
	.syntax unified
	.thumb
	.thumb_func
	.fpu fpv4-sp-d16
	.type	uECC_vli_cmp_unsafe, %function
uECC_vli_cmp_unsafe:
.LVL44:
.LFB14:
	.loc 2 279 63 is_stmt 1 view -0
	@ args = 0, pretend = 0, frame = 0
	@ frame_needed = 0, uses_anonymous_args = 0
	.loc 2 280 5 view .LVU131
	.loc 2 281 5 view .LVU132
	.loc 2 279 63 is_stmt 0 view .LVU133
	push	{r4, lr}
.LCFI7:
	.loc 2 281 24 view .LVU134
	subs	r2, r2, #1
.LVL45:
	.loc 2 281 24 view .LVU135
	sxtb	r2, r2
.LVL46:
.L25:
	.loc 2 281 29 is_stmt 1 discriminator 1 view .LVU136
	.loc 2 281 5 is_stmt 0 discriminator 1 view .LVU137
	lsls	r3, r2, #24
	bpl	.L27
	.loc 2 288 12 view .LVU138
	movs	r0, #0
.LVL47:
.L26:
	.loc 2 289 1 view .LVU139
	pop	{r4, pc}
.LVL48:
.L27:
	.loc 2 282 9 is_stmt 1 view .LVU140
	.loc 2 282 17 is_stmt 0 view .LVU141
	ldr	r4, [r0, r2, lsl #2]
	.loc 2 282 28 view .LVU142
	ldr	r3, [r1, r2, lsl #2]
	.loc 2 282 12 view .LVU143
	cmp	r4, r3
	bhi	.L28
	.loc 2 284 16 is_stmt 1 view .LVU144
	add	r2, r2, #-1
.LVL49:
	.loc 2 284 19 is_stmt 0 view .LVU145
	bcs	.L25
	.loc 2 285 20 view .LVU146
	mov	r0, #-1
.LVL50:
	.loc 2 285 20 view .LVU147
	b	.L26
.LVL51:
.L28:
	.loc 2 283 20 view .LVU148
	movs	r0, #1
.LVL52:
	.loc 2 283 20 view .LVU149
	b	.L26
.LFE14:
	.size	uECC_vli_cmp_unsafe, .-uECC_vli_cmp_unsafe
	.section	.text.uECC_vli_cmp,"ax",%progbits
	.align	1
	.syntax unified
	.thumb
	.thumb_func
	.fpu fpv4-sp-d16
	.type	uECC_vli_cmp, %function
uECC_vli_cmp:
.LVL53:
.LFB16:
	.loc 2 312 62 is_stmt 1 view -0
	@ args = 0, pretend = 0, frame = 32
	@ frame_needed = 0, uses_anonymous_args = 0
	.loc 2 313 5 view .LVU151
	.loc 2 314 5 view .LVU152
	.loc 2 312 62 is_stmt 0 view .LVU153
	push	{r4, r5, lr}
.LCFI8:
	sub	sp, sp, #36
.LCFI9:
	.loc 2 314 25 view .LVU154
	mov	r3, r2
	.loc 2 312 62 view .LVU155
	mov	r5, r2
	.loc 2 314 25 view .LVU156
	mov	r2, r1
.LVL54:
	.loc 2 314 25 view .LVU157
	mov	r1, r0
.LVL55:
	.loc 2 314 25 view .LVU158
	mov	r0, sp
.LVL56:
	.loc 2 314 25 view .LVU159
	bl	uECC_vli_sub
.LVL57:
	.loc 2 315 25 view .LVU160
	mov	r1, r5
	.loc 2 314 25 view .LVU161
	mov	r4, r0
.LVL58:
	.loc 2 315 5 is_stmt 1 view .LVU162
	.loc 2 315 25 is_stmt 0 view .LVU163
	mov	r0, sp
.LVL59:
	.loc 2 315 25 view .LVU164
	bl	uECC_vli_isZero
.LVL60:
	.loc 2 316 5 is_stmt 1 view .LVU165
	.loc 2 314 23 is_stmt 0 view .LVU166
	subs	r4, r4, #0
	.loc 2 314 23 view .LVU167
	it	ne
	movne	r4, #1
.LVL61:
	.loc 2 316 20 view .LVU168
	lsls	r4, r4, #1
	.loc 2 317 1 view .LVU169
	cmp	r0, #0
	ite	ne
	rsbne	r0, r4, #0
	rsbeq	r0, r4, #1
.LVL62:
	.loc 2 317 1 view .LVU170
	add	sp, sp, #36
.LCFI10:
	@ sp needed
	pop	{r4, r5, pc}
.LFE16:
	.size	uECC_vli_cmp, .-uECC_vli_cmp
	.section	.text.uECC_vli_rshift1,"ax",%progbits
	.align	1
	.syntax unified
	.thumb
	.thumb_func
	.fpu fpv4-sp-d16
	.type	uECC_vli_rshift1, %function
uECC_vli_rshift1:
.LVL63:
.LFB17:
	.loc 2 321 77 is_stmt 1 view -0
	@ args = 0, pretend = 0, frame = 0
	@ frame_needed = 0, uses_anonymous_args = 0
	@ link register save eliminated.
	.loc 2 322 5 view .LVU172
	.loc 2 323 5 view .LVU173
	.loc 2 325 5 view .LVU174
	.loc 2 326 5 view .LVU175
	.loc 2 325 9 is_stmt 0 view .LVU176
	add	r1, r0, r1, lsl #2
.LVL64:
	.loc 2 323 17 view .LVU177
	movs	r3, #0
.LVL65:
.L32:
	.loc 2 326 11 is_stmt 1 view .LVU178
	.loc 2 326 11 is_stmt 0 view .LVU179
	cmp	r0, r1
	bcc	.L33
	.loc 2 331 1 view .LVU180
	bx	lr
.L33:
.LBB22:
	.loc 2 327 9 is_stmt 1 view .LVU181
	.loc 2 327 21 is_stmt 0 view .LVU182
	ldr	r2, [r1, #-4]!
.LVL66:
	.loc 2 328 9 is_stmt 1 view .LVU183
	.loc 2 328 28 is_stmt 0 view .LVU184
	orr	r3, r3, r2, lsr #1
.LVL67:
	.loc 2 328 14 view .LVU185
	str	r3, [r1]
	.loc 2 329 9 is_stmt 1 view .LVU186
	.loc 2 329 15 is_stmt 0 view .LVU187
	lsls	r3, r2, #31
.LVL68:
	.loc 2 329 15 view .LVU188
	b	.L32
.LBE22:
.LFE17:
	.size	uECC_vli_rshift1, .-uECC_vli_rshift1
	.section	.text.uECC_vli_modAdd,"ax",%progbits
	.align	1
	.syntax unified
	.thumb
	.thumb_func
	.fpu fpv4-sp-d16
	.type	uECC_vli_modAdd, %function
uECC_vli_modAdd:
.LVL69:
.LFB18:
	.loc 2 545 58 is_stmt 1 view -0
	@ args = 4, pretend = 0, frame = 8
	@ frame_needed = 0, uses_anonymous_args = 0
	.loc 2 546 5 view .LVU190
	.loc 2 545 58 is_stmt 0 view .LVU191
	push	{r0, r1, r2, r4, r5, lr}
.LCFI11:
	.loc 2 545 58 view .LVU192
	mov	r5, r3
	ldrsb	r3, [sp, #24]
.LVL70:
	.loc 2 546 25 view .LVU193
	str	r3, [sp, #4]
	.loc 2 545 58 view .LVU194
	mov	r4, r0
	.loc 2 546 25 view .LVU195
	bl	uECC_vli_add
.LVL71:
	.loc 2 547 5 is_stmt 1 view .LVU196
	.loc 2 547 8 is_stmt 0 view .LVU197
	ldr	r3, [sp, #4]
	cbnz	r0, .L35
	.loc 2 547 18 discriminator 1 view .LVU198
	mov	r2, r3
	mov	r1, r4
	mov	r0, r5
.LVL72:
	.loc 2 547 18 discriminator 1 view .LVU199
	bl	uECC_vli_cmp_unsafe
.LVL73:
	.loc 2 547 15 discriminator 1 view .LVU200
	cmp	r0, #1
	ldr	r3, [sp, #4]
	beq	.L34
.L35:
	.loc 2 549 9 is_stmt 1 view .LVU201
	mov	r2, r5
	mov	r1, r4
	mov	r0, r4
	.loc 2 551 1 is_stmt 0 view .LVU202
	add	sp, sp, #12
.LCFI12:
	@ sp needed
	pop	{r4, r5, lr}
.LCFI13:
.LVL74:
	.loc 2 549 9 view .LVU203
	b	uECC_vli_sub
.LVL75:
.L34:
.LCFI14:
	.loc 2 551 1 view .LVU204
	add	sp, sp, #12
.LCFI15:
	@ sp needed
	pop	{r4, r5, pc}
	.loc 2 551 1 view .LVU205
.LFE18:
	.size	uECC_vli_modAdd, .-uECC_vli_modAdd
	.section	.text.uECC_vli_modSub,"ax",%progbits
	.align	1
	.syntax unified
	.thumb
	.thumb_func
	.fpu fpv4-sp-d16
	.type	uECC_vli_modSub, %function
uECC_vli_modSub:
.LVL76:
.LFB19:
	.loc 2 559 58 is_stmt 1 view -0
	@ args = 4, pretend = 0, frame = 8
	@ frame_needed = 0, uses_anonymous_args = 0
	.loc 2 560 5 view .LVU207
	.loc 2 559 58 is_stmt 0 view .LVU208
	push	{r0, r1, r2, r4, r5, lr}
.LCFI16:
	.loc 2 559 58 view .LVU209
	mov	r5, r3
	ldrsb	r3, [sp, #24]
.LVL77:
	.loc 2 560 28 view .LVU210
	str	r3, [sp, #4]
	.loc 2 559 58 view .LVU211
	mov	r4, r0
	.loc 2 560 28 view .LVU212
	bl	uECC_vli_sub
.LVL78:
	.loc 2 561 5 is_stmt 1 view .LVU213
	.loc 2 561 8 is_stmt 0 view .LVU214
	ldr	r3, [sp, #4]
	cbz	r0, .L37
	.loc 2 564 9 is_stmt 1 view .LVU215
	mov	r2, r5
	mov	r1, r4
	mov	r0, r4
.LVL79:
	.loc 2 566 1 is_stmt 0 view .LVU216
	add	sp, sp, #12
.LCFI17:
	@ sp needed
	pop	{r4, r5, lr}
.LCFI18:
.LVL80:
	.loc 2 564 9 view .LVU217
	b	uECC_vli_add
.LVL81:
.L37:
.LCFI19:
	.loc 2 566 1 view .LVU218
	add	sp, sp, #12
.LCFI20:
	@ sp needed
	pop	{r4, r5, pc}
	.loc 2 566 1 view .LVU219
.LFE19:
	.size	uECC_vli_modSub, .-uECC_vli_modSub
	.section	.text.uECC_vli_modMult,"ax",%progbits
	.align	1
	.syntax unified
	.thumb
	.thumb_func
	.fpu fpv4-sp-d16
	.type	uECC_vli_modMult, %function
uECC_vli_modMult:
.LVL82:
.LFB21:
	.loc 2 617 59 is_stmt 1 view -0
	@ args = 4, pretend = 0, frame = 208
	@ frame_needed = 0, uses_anonymous_args = 0
	.loc 2 618 5 view .LVU221
	.loc 2 619 5 view .LVU222
	.loc 2 617 59 is_stmt 0 view .LVU223
	push	{r4, r5, r6, r7, r8, r9, r10, fp, lr}
.LCFI21:
	sub	sp, sp, #212
.LCFI22:
	.loc 2 617 59 view .LVU224
	mov	r6, r3
	ldrsb	r5, [sp, #248]
	mov	r8, r0
	.loc 2 619 5 view .LVU225
	mov	r3, r5
.LVL83:
	.loc 2 619 5 view .LVU226
	add	r0, sp, #16
.LVL84:
	.loc 2 619 5 view .LVU227
	bl	uECC_vli_mult
.LVL85:
	.loc 2 620 5 is_stmt 1 view .LVU228
.LBB27:
.LBI27:
	.loc 2 570 19 view .LVU229
.LBB28:
	.loc 2 574 5 view .LVU230
	.loc 2 575 5 view .LVU231
	.loc 2 576 5 view .LVU232
	.loc 2 576 18 is_stmt 0 view .LVU233
	add	r3, sp, #144
	strd	r3, r0, [sp, #8]
	.loc 2 577 5 is_stmt 1 view .LVU234
	.loc 2 580 5 view .LVU235
	.loc 2 580 59 is_stmt 0 view .LVU236
	mov	r1, r5
.LVL86:
	.loc 2 580 59 view .LVU237
	mov	r0, r6
.LVL87:
	.loc 2 580 59 view .LVU238
	bl	uECC_vli_numBits
.LVL88:
	.loc 2 580 57 view .LVU239
	rsb	r0, r0, r5, lsl #6
	.loc 2 580 16 view .LVU240
	sxth	r4, r0
.LVL89:
	.loc 2 581 5 is_stmt 1 view .LVU241
	.loc 2 581 17 is_stmt 0 view .LVU242
	cmp	r4, #0
	mov	r1, r4
	it	lt
	addlt	r1, r4, #31
	.loc 2 582 17 view .LVU243
	rsbs	r3, r4, #0
	.loc 2 581 17 view .LVU244
	sbfx	r1, r1, #5, #8
.LVL90:
	.loc 2 582 5 is_stmt 1 view .LVU245
	.loc 2 582 17 is_stmt 0 view .LVU246
	and	r3, r3, #31
	.loc 2 584 5 view .LVU247
	add	r0, sp, #80
	.loc 2 582 17 view .LVU248
	and	r7, r4, #31
	it	pl
	rsbpl	r7, r3, #0
.LVL91:
	.loc 2 583 5 is_stmt 1 view .LVU249
	.loc 2 584 5 view .LVU250
	bl	uECC_vli_clear
.LVL92:
	.loc 2 585 5 view .LVU251
	.loc 2 585 8 is_stmt 0 view .LVU252
	cmp	r7, #0
	sxth	r0, r1
	ble	.L41
	.loc 2 585 8 view .LVU253
	add	r3, sp, #80
	.loc 2 583 17 view .LVU254
	movs	r2, #0
	add	r1, r3, r0, lsl #2
.LVL93:
	.loc 2 588 51 view .LVU255
	rsb	lr, r7, #32
	.loc 2 586 19 view .LVU256
	mov	r3, r2
.LVL94:
.L42:
	.loc 2 586 24 is_stmt 1 view .LVU257
	.loc 2 586 9 is_stmt 0 view .LVU258
	cmp	r3, r5
	bcc	.L43
.LVL95:
.L44:
.LBB29:
	.loc 2 597 35 view .LVU259
	lsls	r3, r5, #1
	str	r3, [sp, #4]
	.loc 2 607 9 view .LVU260
	add	r3, sp, #80
	add	r9, r3, r5, lsl #2
	.loc 2 606 37 view .LVU261
	subs	r7, r5, #1
.LVL96:
	.loc 2 606 37 view .LVU262
	add	r3, sp, #208
	.loc 2 607 9 view .LVU263
	movs	r6, #1
.LVL97:
	.loc 2 606 37 view .LVU264
	add	r7, r3, r7, lsl #2
.LVL98:
.L45:
	.loc 2 606 37 view .LVU265
.LBE29:
	.loc 2 594 21 is_stmt 1 view .LVU266
	.loc 2 594 5 is_stmt 0 view .LVU267
	cmp	r4, #0
	bge	.L51
	.loc 2 609 5 is_stmt 1 view .LVU268
	.loc 2 609 27 is_stmt 0 view .LVU269
	add	r3, sp, #208
	add	r6, r3, r6, lsl #2
.LVL99:
	.loc 2 609 5 view .LVU270
	mov	r2, r5
	ldr	r1, [r6, #-200]
	mov	r0, r8
	bl	uECC_vli_set
.LVL100:
	.loc 2 609 5 view .LVU271
.LBE28:
.LBE27:
	.loc 2 621 1 view .LVU272
	add	sp, sp, #212
.LCFI23:
	@ sp needed
	pop	{r4, r5, r6, r7, r8, r9, r10, fp, pc}
.LVL101:
.L43:
.LCFI24:
.LBB38:
.LBB37:
	.loc 2 587 13 is_stmt 1 view .LVU273
	.loc 2 587 52 is_stmt 0 view .LVU274
	ldr	ip, [r6, r3, lsl #2]
	.loc 2 587 60 view .LVU275
	lsl	r0, ip, r7
	.loc 2 587 74 view .LVU276
	orrs	r2, r2, r0
.LVL102:
	.loc 2 587 46 view .LVU277
	str	r2, [r1], #4
	.loc 2 588 13 is_stmt 1 view .LVU278
	.loc 2 586 56 is_stmt 0 view .LVU279
	adds	r3, r3, #1
.LVL103:
	.loc 2 588 19 view .LVU280
	lsr	r2, ip, lr
.LVL104:
	.loc 2 586 56 is_stmt 1 view .LVU281
	.loc 2 586 56 is_stmt 0 view .LVU282
	b	.L42
.LVL105:
.L41:
	.loc 2 591 9 is_stmt 1 view .LVU283
	add	r3, sp, #80
	mov	r2, r5
	mov	r1, r6
.LVL106:
	.loc 2 591 9 is_stmt 0 view .LVU284
	add	r0, r3, r0, lsl #2
	bl	uECC_vli_set
.LVL107:
	b	.L44
.LVL108:
.L49:
.LBB34:
.LBB30:
	.loc 2 598 13 is_stmt 1 view .LVU285
	.loc 2 598 40 is_stmt 0 view .LVU286
	sxth	lr, r2
	ldr	r3, [r10, #-200]
	ldr	fp, [r3, lr, lsl #2]
	.loc 2 598 58 view .LVU287
	add	r3, sp, #208
	add	r2, r3, r2, lsl #2
.LVL109:
	.loc 2 598 58 view .LVU288
	adds	r0, r0, #1
.LVL110:
	.loc 2 598 58 view .LVU289
	ldr	r3, [r2, #-128]
	add	r3, r3, r1
	subs	r3, fp, r3
	ite	cc
	movcc	r2, #1
	movcs	r2, #0
.LVL111:
	.loc 2 599 13 is_stmt 1 view .LVU290
	.loc 2 599 16 is_stmt 0 view .LVU291
	cmp	fp, r3
	.loc 2 600 32 view .LVU292
	it	ne
	movne	r1, r2
.LVL112:
	.loc 2 602 13 is_stmt 1 view .LVU293
	.loc 2 602 29 is_stmt 0 view .LVU294
	ldr	r2, [ip, #-200]
	str	r3, [r2, lr, lsl #2]
.LBE30:
	.loc 2 597 40 is_stmt 1 view .LVU295
.LVL113:
.L50:
	.loc 2 597 9 is_stmt 0 view .LVU296
	ldr	r3, [sp, #4]
	sxtb	r2, r0
.LVL114:
	.loc 2 597 21 is_stmt 1 view .LVU297
	.loc 2 597 9 is_stmt 0 view .LVU298
	cmp	r2, r3
	blt	.L49
	.loc 2 604 9 is_stmt 1 view .LVU299
	.loc 2 604 17 is_stmt 0 view .LVU300
	subs	r3, r6, r1
	rsbs	r6, r3, #0
.LVL115:
	.loc 2 605 9 view .LVU301
	mov	r1, r5
.LVL116:
	.loc 2 605 9 view .LVU302
	add	r0, sp, #80
	.loc 2 604 17 view .LVU303
	adcs	r6, r6, r3
.LVL117:
	.loc 2 605 9 is_stmt 1 view .LVU304
	bl	uECC_vli_rshift1
.LVL118:
	.loc 2 606 9 view .LVU305
	.loc 2 606 52 is_stmt 0 view .LVU306
	add	r3, sp, #208
	add	r3, r3, r5, lsl #2
	.loc 2 607 9 view .LVU307
	mov	r1, r5
	.loc 2 606 64 view .LVU308
	ldr	r2, [r3, #-128]
	.loc 2 606 37 view .LVU309
	ldr	r3, [r7, #-128]
	.loc 2 607 9 view .LVU310
	mov	r0, r9
	.loc 2 606 37 view .LVU311
	orr	r3, r3, r2, lsl #31
	subs	r4, r4, #1
.LVL119:
	.loc 2 606 37 view .LVU312
	str	r3, [r7, #-128]
	.loc 2 607 9 is_stmt 1 view .LVU313
	sxth	r4, r4
	bl	uECC_vli_rshift1
.LVL120:
.LBE34:
	.loc 2 594 33 view .LVU314
	.loc 2 594 33 is_stmt 0 view .LVU315
	b	.L45
.L51:
.LBB35:
.LBB31:
	.loc 2 598 33 view .LVU316
	add	r3, sp, #208
.LBE31:
.LBE35:
	movs	r0, #0
.LBB36:
.LBB32:
	.loc 2 602 17 view .LVU317
	rsb	ip, r6, #1
.LBE32:
	.loc 2 595 21 view .LVU318
	mov	r1, r0
.LBB33:
	.loc 2 598 33 view .LVU319
	add	r10, r3, r6, lsl #2
	.loc 2 602 14 view .LVU320
	add	ip, r3, ip, lsl #2
	b	.L50
.LBE33:
.LBE36:
.LBE37:
.LBE38:
.LFE21:
	.size	uECC_vli_modMult, .-uECC_vli_modMult
	.section	.text.uECC_vli_modMult_fast,"ax",%progbits
	.align	1
	.syntax unified
	.thumb
	.thumb_func
	.fpu fpv4-sp-d16
	.type	uECC_vli_modMult_fast, %function
uECC_vli_modMult_fast:
.LVL121:
.LFB22:
	.loc 2 626 59 is_stmt 1 view -0
	@ args = 0, pretend = 0, frame = 64
	@ frame_needed = 0, uses_anonymous_args = 0
	.loc 2 627 5 view .LVU322
	.loc 2 628 5 view .LVU323
	.loc 2 626 59 is_stmt 0 view .LVU324
	push	{r4, r5, lr}
.LCFI25:
	mov	r4, r3
	sub	sp, sp, #68
.LCFI26:
	.loc 2 626 59 view .LVU325
	mov	r5, r0
	.loc 2 628 5 view .LVU326
	ldrsb	r3, [r3]
.LVL122:
	.loc 2 628 5 view .LVU327
	mov	r0, sp
.LVL123:
	.loc 2 628 5 view .LVU328
	bl	uECC_vli_mult
.LVL124:
	.loc 2 630 5 is_stmt 1 view .LVU329
	ldr	r3, [r4, #176]
	mov	r1, sp
.LVL125:
	.loc 2 630 5 is_stmt 0 view .LVU330
	mov	r0, r5
	blx	r3
.LVL126:
	.loc 2 634 1 view .LVU331
	add	sp, sp, #68
.LCFI27:
	@ sp needed
	pop	{r4, r5, pc}
	.loc 2 634 1 view .LVU332
.LFE22:
	.size	uECC_vli_modMult_fast, .-uECC_vli_modMult_fast
	.section	.text.uECC_vli_modSquare_fast,"ax",%progbits
	.align	1
	.syntax unified
	.thumb
	.thumb_func
	.fpu fpv4-sp-d16
	.type	uECC_vli_modSquare_fast, %function
uECC_vli_modSquare_fast:
.LVL127:
.LFB23:
	.loc 2 675 61 is_stmt 1 view -0
	@ args = 0, pretend = 0, frame = 0
	@ frame_needed = 0, uses_anonymous_args = 0
	@ link register save eliminated.
	.loc 2 676 5 view .LVU334
	.loc 2 675 61 is_stmt 0 view .LVU335
	mov	r3, r2
	.loc 2 676 5 view .LVU336
	mov	r2, r1
.LVL128:
	.loc 2 676 5 view .LVU337
	b	uECC_vli_modMult_fast
.LVL129:
	.loc 2 676 5 view .LVU338
.LFE23:
	.size	uECC_vli_modSquare_fast, .-uECC_vli_modSquare_fast
	.section	.text.double_jacobian_default,"ax",%progbits
	.align	1
	.syntax unified
	.thumb
	.thumb_func
	.fpu fpv4-sp-d16
	.type	double_jacobian_default, %function
double_jacobian_default:
.LVL130:
.LFB26:
	.file 3 "/home/matteo/Desktop/Reti di Sensori Wireless per IOT/Progetto/nrf5_SDK_for_Mesh_v4.0.0_src/external/micro-ecc/curve-specific.inc"
	.loc 3 53 55 is_stmt 1 view -0
	@ args = 0, pretend = 0, frame = 64
	@ frame_needed = 0, uses_anonymous_args = 0
	.loc 3 55 5 view .LVU340
	.loc 3 56 5 view .LVU341
	.loc 3 57 5 view .LVU342
	.loc 3 53 55 is_stmt 0 view .LVU343
	push	{r4, r5, r6, r7, r8, r9, r10, lr}
.LCFI28:
	.loc 3 57 17 view .LVU344
	ldrsb	r6, [r3]
.LVL131:
	.loc 3 59 5 is_stmt 1 view .LVU345
	.loc 3 53 55 is_stmt 0 view .LVU346
	sub	sp, sp, #72
.LCFI29:
	.loc 3 53 55 view .LVU347
	mov	r4, r0
	mov	r9, r1
	.loc 3 59 9 view .LVU348
	mov	r0, r2
.LVL132:
	.loc 3 59 9 view .LVU349
	mov	r1, r6
.LVL133:
	.loc 3 53 55 view .LVU350
	mov	r5, r2
	mov	r7, r3
	.loc 3 59 9 view .LVU351
	bl	uECC_vli_isZero
.LVL134:
	.loc 3 59 8 view .LVU352
	cmp	r0, #0
	bne	.L54
	.loc 3 63 5 is_stmt 1 view .LVU353
	mov	r2, r7
	mov	r1, r9
	add	r0, sp, #8
	bl	uECC_vli_modSquare_fast
.LVL135:
	.loc 3 64 5 view .LVU354
	mov	r3, r7
	add	r2, sp, #8
	mov	r1, r4
	add	r0, sp, #40
	bl	uECC_vli_modMult_fast
.LVL136:
	.loc 3 65 5 view .LVU355
	add	r1, sp, #8
	mov	r0, r1
	mov	r2, r7
	bl	uECC_vli_modSquare_fast
.LVL137:
	.loc 3 66 5 view .LVU356
	mov	r3, r7
	mov	r2, r5
	mov	r1, r9
	mov	r0, r9
	bl	uECC_vli_modMult_fast
.LVL138:
	.loc 3 67 5 view .LVU357
	.loc 3 69 38 is_stmt 0 view .LVU358
	add	r8, r7, #4
	.loc 3 67 5 view .LVU359
	mov	r2, r7
	mov	r1, r5
	mov	r0, r5
	bl	uECC_vli_modSquare_fast
.LVL139:
	.loc 3 69 5 is_stmt 1 view .LVU360
	mov	r3, r8
	mov	r2, r5
	mov	r1, r4
	mov	r0, r4
	str	r6, [sp]
	bl	uECC_vli_modAdd
.LVL140:
	.loc 3 70 5 view .LVU361
	mov	r3, r8
	mov	r2, r5
	mov	r1, r5
	mov	r0, r5
	str	r6, [sp]
	bl	uECC_vli_modAdd
.LVL141:
	.loc 3 71 5 view .LVU362
	mov	r3, r8
	mov	r2, r5
	mov	r1, r4
	mov	r0, r5
	str	r6, [sp]
	bl	uECC_vli_modSub
.LVL142:
	.loc 3 72 5 view .LVU363
	mov	r3, r7
	mov	r2, r5
	mov	r1, r4
	mov	r0, r4
	bl	uECC_vli_modMult_fast
.LVL143:
	.loc 3 74 5 view .LVU364
	mov	r3, r8
	mov	r2, r4
	mov	r1, r4
	mov	r0, r5
	str	r6, [sp]
	bl	uECC_vli_modAdd
.LVL144:
	.loc 3 75 5 view .LVU365
	mov	r3, r8
	str	r6, [sp]
	mov	r2, r5
	mov	r1, r4
	mov	r0, r4
	bl	uECC_vli_modAdd
.LVL145:
	.loc 3 76 5 view .LVU366
.LBB39:
.LBI39:
	.loc 2 233 26 view .LVU367
.LBB40:
	.loc 2 234 5 view .LVU368
	.loc 2 234 46 is_stmt 0 view .LVU369
	ldr	r3, [r4]
.LBE40:
.LBE39:
	.loc 3 76 8 view .LVU370
	lsls	r3, r3, #31
	bpl	.L57
.LBB41:
	.loc 3 77 9 is_stmt 1 view .LVU371
	.loc 3 77 31 is_stmt 0 view .LVU372
	mov	r3, r6
	mov	r2, r8
	mov	r1, r4
	mov	r0, r4
	bl	uECC_vli_add
.LVL146:
	.loc 3 78 9 view .LVU373
	mov	r1, r6
	.loc 3 77 31 view .LVU374
	mov	r10, r0
.LVL147:
	.loc 3 78 9 is_stmt 1 view .LVU375
	mov	r0, r4
.LVL148:
	.loc 3 78 9 is_stmt 0 view .LVU376
	bl	uECC_vli_rshift1
.LVL149:
	.loc 3 79 9 is_stmt 1 view .LVU377
	.loc 3 79 27 is_stmt 0 view .LVU378
	add	r3, r6, #1073741824
	subs	r3, r3, #1
	ldr	r2, [r4, r3, lsl #2]
	orr	r2, r2, r10, lsl #31
	str	r2, [r4, r3, lsl #2]
.LVL150:
.L58:
	.loc 3 79 27 view .LVU379
.LBE41:
	.loc 3 85 5 is_stmt 1 view .LVU380
	mov	r2, r7
	mov	r1, r4
	mov	r0, r5
	bl	uECC_vli_modSquare_fast
.LVL151:
	.loc 3 86 5 view .LVU381
	mov	r3, r8
	add	r2, sp, #40
	mov	r1, r5
	mov	r0, r5
	str	r6, [sp]
	bl	uECC_vli_modSub
.LVL152:
	.loc 3 87 5 view .LVU382
	mov	r3, r8
	add	r2, sp, #40
	mov	r1, r5
	mov	r0, r5
	str	r6, [sp]
	bl	uECC_vli_modSub
.LVL153:
	.loc 3 88 5 view .LVU383
	add	r1, sp, #40
	mov	r0, r1
	mov	r3, r8
	mov	r2, r5
	str	r6, [sp]
	bl	uECC_vli_modSub
.LVL154:
	.loc 3 89 5 view .LVU384
	mov	r3, r7
	add	r2, sp, #40
	mov	r1, r4
	mov	r0, r4
	bl	uECC_vli_modMult_fast
.LVL155:
	.loc 3 90 5 view .LVU385
	add	r2, sp, #8
	mov	r3, r8
	mov	r0, r2
	mov	r1, r4
	str	r6, [sp]
	bl	uECC_vli_modSub
.LVL156:
	.loc 3 92 5 view .LVU386
	mov	r2, r6
	mov	r1, r5
	mov	r0, r4
	bl	uECC_vli_set
.LVL157:
	.loc 3 93 5 view .LVU387
	mov	r1, r9
	mov	r0, r5
	bl	uECC_vli_set
.LVL158:
	.loc 3 94 5 view .LVU388
	add	r1, sp, #8
	mov	r0, r9
	bl	uECC_vli_set
.LVL159:
.L54:
	.loc 3 95 1 is_stmt 0 view .LVU389
	add	sp, sp, #72
.LCFI30:
	@ sp needed
	pop	{r4, r5, r6, r7, r8, r9, r10, pc}
.LVL160:
.L57:
.LCFI31:
	.loc 3 81 9 is_stmt 1 view .LVU390
	mov	r1, r6
	mov	r0, r4
	bl	uECC_vli_rshift1
.LVL161:
	b	.L58
.LFE26:
	.size	double_jacobian_default, .-double_jacobian_default
	.section	.text.x_side_default,"ax",%progbits
	.align	1
	.syntax unified
	.thumb
	.thumb_func
	.fpu fpv4-sp-d16
	.type	x_side_default, %function
x_side_default:
.LVL162:
.LFB27:
	.loc 3 98 89 view -0
	@ args = 0, pretend = 0, frame = 32
	@ frame_needed = 0, uses_anonymous_args = 0
	.loc 3 99 5 view .LVU392
	.loc 3 98 89 is_stmt 0 view .LVU393
	push	{r4, r5, r6, r7, r8, lr}
.LCFI32:
	mov	r5, r2
	sub	sp, sp, #40
.LCFI33:
	.loc 3 98 89 view .LVU394
	mov	r4, r0
	mov	r6, r1
	.loc 3 99 17 view .LVU395
	movs	r2, #28
.LVL163:
	.loc 3 99 17 view .LVU396
	movs	r1, #0
.LVL164:
	.loc 3 99 17 view .LVU397
	add	r0, sp, #12
.LVL165:
	.loc 3 99 17 view .LVU398
	bl	memset
.LVL166:
	.loc 3 103 46 view .LVU399
	adds	r7, r5, #4
	.loc 3 100 17 view .LVU400
	ldrsb	r8, [r5]
	.loc 3 99 17 view .LVU401
	movs	r3, #3
	.loc 3 102 5 view .LVU402
	mov	r2, r5
	mov	r1, r6
	mov	r0, r4
	.loc 3 99 17 view .LVU403
	str	r3, [sp, #8]
	.loc 3 100 5 is_stmt 1 view .LVU404
.LVL167:
	.loc 3 102 5 view .LVU405
	bl	uECC_vli_modSquare_fast
.LVL168:
	.loc 3 103 5 view .LVU406
	mov	r3, r7
	add	r2, sp, #8
	mov	r1, r4
	mov	r0, r4
	str	r8, [sp]
	bl	uECC_vli_modSub
.LVL169:
	.loc 3 104 5 view .LVU407
	mov	r3, r5
	mov	r2, r6
	mov	r1, r4
	mov	r0, r4
	bl	uECC_vli_modMult_fast
.LVL170:
	.loc 3 105 5 view .LVU408
	str	r8, [sp]
	mov	r3, r7
	add	r2, r5, #132
	mov	r1, r4
	mov	r0, r4
	bl	uECC_vli_modAdd
.LVL171:
	.loc 3 106 1 is_stmt 0 view .LVU409
	add	sp, sp, #40
.LCFI34:
	@ sp needed
	pop	{r4, r5, r6, r7, r8, pc}
	.loc 3 106 1 view .LVU410
.LFE27:
	.size	x_side_default, .-x_side_default
	.section	.text.mod_sqrt_default,"ax",%progbits
	.align	1
	.syntax unified
	.thumb
	.thumb_func
	.fpu fpv4-sp-d16
	.type	mod_sqrt_default, %function
mod_sqrt_default:
.LVL172:
.LFB28:
	.loc 3 113 64 is_stmt 1 view -0
	@ args = 0, pretend = 0, frame = 64
	@ frame_needed = 0, uses_anonymous_args = 0
	.loc 3 114 5 view .LVU412
	.loc 3 115 5 view .LVU413
	.loc 3 113 64 is_stmt 0 view .LVU414
	push	{r4, r5, r6, r7, lr}
.LCFI35:
	sub	sp, sp, #68
.LCFI36:
	.loc 3 113 64 view .LVU415
	mov	r5, r1
	.loc 3 115 17 view .LVU416
	movs	r2, #28
	movs	r1, #0
.LVL173:
	.loc 3 113 64 view .LVU417
	mov	r6, r0
	.loc 3 115 17 view .LVU418
	add	r0, sp, #4
.LVL174:
	.loc 3 115 17 view .LVU419
	bl	memset
.LVL175:
	movs	r4, #1
	.loc 3 116 17 view .LVU420
	movs	r2, #28
	movs	r1, #0
	add	r0, sp, #36
	.loc 3 115 17 view .LVU421
	str	r4, [sp]
	.loc 3 116 5 is_stmt 1 view .LVU422
	.loc 3 116 17 is_stmt 0 view .LVU423
	bl	memset
.LVL176:
	.loc 3 117 17 view .LVU424
	mov	r1, r5
	.loc 3 121 5 view .LVU425
	mov	r2, sp
	.loc 3 117 17 view .LVU426
	ldrsb	r7, [r1], #4
	.loc 3 116 17 view .LVU427
	str	r4, [sp, #32]
	.loc 3 117 5 is_stmt 1 view .LVU428
.LVL177:
	.loc 3 121 5 view .LVU429
	mov	r3, r7
	mov	r0, sp
	bl	uECC_vli_add
.LVL178:
	.loc 3 122 5 view .LVU430
	.loc 3 122 14 is_stmt 0 view .LVU431
	mov	r1, r7
	mov	r0, sp
	bl	uECC_vli_numBits
.LVL179:
	.loc 3 122 46 view .LVU432
	subs	r4, r0, #1
.L67:
	sxth	r4, r4
.LVL180:
	.loc 3 122 51 is_stmt 1 discriminator 2 view .LVU433
	.loc 3 122 5 is_stmt 0 discriminator 2 view .LVU434
	cmp	r4, #1
	bgt	.L63
	.loc 3 128 5 is_stmt 1 view .LVU435
	mov	r2, r7
	add	r1, sp, #32
	mov	r0, r6
	bl	uECC_vli_set
.LVL181:
	.loc 3 129 1 is_stmt 0 view .LVU436
	add	sp, sp, #68
.LCFI37:
	@ sp needed
	pop	{r4, r5, r6, r7, pc}
.LVL182:
.L63:
.LCFI38:
	.loc 3 123 9 is_stmt 1 view .LVU437
	add	r1, sp, #32
	mov	r0, r1
	mov	r2, r5
	bl	uECC_vli_modSquare_fast
.LVL183:
	.loc 3 124 9 view .LVU438
	.loc 3 124 13 is_stmt 0 view .LVU439
	mov	r1, r4
	mov	r0, sp
	bl	uECC_vli_testBit
.LVL184:
	.loc 3 124 12 view .LVU440
	cbz	r0, .L62
	.loc 3 125 13 is_stmt 1 view .LVU441
	add	r1, sp, #32
	mov	r3, r5
	mov	r2, r6
	mov	r0, r1
	bl	uECC_vli_modMult_fast
.LVL185:
.L62:
	.loc 3 122 58 discriminator 2 view .LVU442
	subs	r4, r4, #1
.LVL186:
	.loc 3 122 58 is_stmt 0 discriminator 2 view .LVU443
	b	.L67
.LFE28:
	.size	mod_sqrt_default, .-mod_sqrt_default
	.section	.text.omega_mult_secp160r1,"ax",%progbits
	.align	1
	.syntax unified
	.thumb
	.thumb_func
	.fpu fpv4-sp-d16
	.type	omega_mult_secp160r1, %function
omega_mult_secp160r1:
.LVL187:
.LFB31:
	.loc 3 257 75 is_stmt 1 view -0
	@ args = 0, pretend = 0, frame = 0
	@ frame_needed = 0, uses_anonymous_args = 0
	.loc 3 258 5 view .LVU445
	.loc 3 259 5 view .LVU446
	.loc 3 262 5 view .LVU447
	.loc 3 257 75 is_stmt 0 view .LVU448
	push	{r3, r4, r5, lr}
.LCFI39:
	.loc 3 262 5 view .LVU449
	movs	r2, #5
	.loc 3 257 75 view .LVU450
	mov	r4, r0
	mov	r5, r1
	.loc 3 262 25 view .LVU451
	adds	r0, r0, #4
.LVL188:
	.loc 3 262 5 view .LVU452
	bl	uECC_vli_set
.LVL189:
	.loc 3 263 5 is_stmt 1 view .LVU453
	movs	r1, #5
.LVL190:
	.loc 3 263 5 is_stmt 0 view .LVU454
	bl	uECC_vli_rshift1
.LVL191:
	.loc 3 264 5 is_stmt 1 view .LVU455
	.loc 3 264 26 is_stmt 0 view .LVU456
	ldr	r3, [r5]
	lsls	r3, r3, #31
	.loc 3 264 15 view .LVU457
	str	r3, [r4]
	.loc 3 266 5 is_stmt 1 view .LVU458
	.loc 3 266 13 is_stmt 0 view .LVU459
	mov	r1, r4
	mov	r0, r4
	movs	r3, #5
	mov	r2, r5
	bl	uECC_vli_add
.LVL192:
	.loc 3 267 5 is_stmt 1 view .LVU460
	.loc 3 267 5 is_stmt 0 view .LVU461
	adds	r4, r4, #16
.LVL193:
.L69:
	.loc 3 267 35 is_stmt 1 discriminator 1 view .LVU462
	.loc 3 267 5 is_stmt 0 discriminator 1 view .LVU463
	cbnz	r0, .L70
	.loc 3 272 1 view .LVU464
	pop	{r3, r4, r5, pc}
.LVL194:
.L70:
.LBB42:
	.loc 3 268 9 is_stmt 1 discriminator 3 view .LVU465
	.loc 3 268 40 is_stmt 0 discriminator 3 view .LVU466
	ldr	r3, [r4, #4]!
.LVL195:
	.loc 3 269 9 is_stmt 1 discriminator 3 view .LVU467
	.loc 3 268 44 is_stmt 0 discriminator 3 view .LVU468
	movs	r1, #0
	.loc 3 269 21 discriminator 3 view .LVU469
	adds	r2, r3, r0
	.loc 3 268 18 discriminator 3 view .LVU470
	adds	r0, r0, r3
.LVL196:
	.loc 3 268 18 discriminator 3 view .LVU471
	adc	r1, r1, #0
	.loc 3 269 19 discriminator 3 view .LVU472
	str	r2, [r4]
	.loc 3 270 9 is_stmt 1 discriminator 3 view .LVU473
	.loc 3 270 15 is_stmt 0 discriminator 3 view .LVU474
	mov	r0, r1
	.loc 3 270 15 discriminator 3 view .LVU475
.LBE42:
	.loc 3 267 42 is_stmt 1 discriminator 3 view .LVU476
	b	.L69
.LFE31:
	.size	omega_mult_secp160r1, .-omega_mult_secp160r1
	.section	.text.vli_mmod_fast_secp160r1,"ax",%progbits
	.align	1
	.syntax unified
	.thumb
	.thumb_func
	.fpu fpv4-sp-d16
	.type	vli_mmod_fast_secp160r1, %function
vli_mmod_fast_secp160r1:
.LVL197:
.LFB30:
	.loc 3 215 80 view -0
	@ args = 0, pretend = 0, frame = 40
	@ frame_needed = 0, uses_anonymous_args = 0
	.loc 3 216 5 view .LVU478
	.loc 3 217 5 view .LVU479
	.loc 3 219 5 view .LVU480
	.loc 3 215 80 is_stmt 0 view .LVU481
	push	{r4, r5, r6, lr}
.LCFI40:
	sub	sp, sp, #40
.LCFI41:
	.loc 3 215 80 view .LVU482
	mov	r6, r1
	mov	r4, r0
	.loc 3 219 5 view .LVU483
	movs	r1, #5
.LVL198:
	.loc 3 219 5 view .LVU484
	mov	r0, sp
.LVL199:
	.loc 3 219 5 view .LVU485
	bl	uECC_vli_clear
.LVL200:
	.loc 3 220 5 is_stmt 1 view .LVU486
	movs	r1, #5
	add	r0, sp, #20
	bl	uECC_vli_clear
.LVL201:
	.loc 3 222 5 view .LVU487
	add	r1, r6, #20
	mov	r0, sp
	bl	omega_mult_secp160r1
.LVL202:
	.loc 3 224 5 view .LVU488
	.loc 3 224 13 is_stmt 0 view .LVU489
	movs	r3, #5
	mov	r2, sp
	mov	r1, r6
	mov	r0, r4
	bl	uECC_vli_add
.LVL203:
	.loc 3 225 5 view .LVU490
	movs	r1, #5
	.loc 3 224 13 view .LVU491
	mov	r5, r0
.LVL204:
	.loc 3 225 5 is_stmt 1 view .LVU492
	mov	r0, r6
.LVL205:
	.loc 3 225 5 is_stmt 0 view .LVU493
	bl	uECC_vli_clear
.LVL206:
	.loc 3 226 5 is_stmt 1 view .LVU494
	add	r1, sp, #20
	bl	omega_mult_secp160r1
.LVL207:
	.loc 3 227 5 view .LVU495
	.loc 3 227 14 is_stmt 0 view .LVU496
	mov	r2, r6
	movs	r3, #5
	mov	r1, r4
	mov	r0, r4
	bl	uECC_vli_add
.LVL208:
	.loc 3 231 9 view .LVU497
	ldr	r6, .L75
.LVL209:
	.loc 3 227 11 view .LVU498
	add	r5, r5, r0
.LVL210:
	.loc 3 229 5 is_stmt 1 view .LVU499
.L72:
	.loc 3 229 11 view .LVU500
	cbnz	r5, .L73
	.loc 3 233 5 view .LVU501
	.loc 3 233 9 is_stmt 0 view .LVU502
	ldr	r1, .L75
	movs	r2, #5
	mov	r0, r4
	bl	uECC_vli_cmp_unsafe
.LVL211:
	.loc 3 233 8 view .LVU503
	cmp	r0, #0
	ble	.L71
	.loc 3 234 9 is_stmt 1 view .LVU504
	ldr	r2, .L75
	movs	r3, #5
	mov	r1, r4
	mov	r0, r4
	bl	uECC_vli_sub
.LVL212:
.L71:
	.loc 3 236 1 is_stmt 0 view .LVU505
	add	sp, sp, #40
.LCFI42:
	@ sp needed
	pop	{r4, r5, r6, pc}
.LVL213:
.L73:
.LCFI43:
	.loc 3 230 9 is_stmt 1 view .LVU506
	.loc 3 231 9 is_stmt 0 view .LVU507
	movs	r3, #5
	mov	r2, r6
	mov	r1, r4
	mov	r0, r4
	.loc 3 230 9 view .LVU508
	subs	r5, r5, #1
.LVL214:
	.loc 3 231 9 is_stmt 1 view .LVU509
	bl	uECC_vli_sub
.LVL215:
	b	.L72
.L76:
	.align	2
.L75:
	.word	.LANCHOR0+4
.LFE30:
	.size	vli_mmod_fast_secp160r1, .-vli_mmod_fast_secp160r1
	.section	.text.vli_mmod_fast_secp192r1,"ax",%progbits
	.align	1
	.syntax unified
	.thumb
	.thumb_func
	.fpu fpv4-sp-d16
	.type	vli_mmod_fast_secp192r1, %function
vli_mmod_fast_secp192r1:
.LVL216:
.LFB33:
	.loc 3 352 74 view -0
	@ args = 0, pretend = 0, frame = 24
	@ frame_needed = 0, uses_anonymous_args = 0
	.loc 3 353 5 view .LVU511
	.loc 3 354 5 view .LVU512
	.loc 3 356 5 view .LVU513
	.loc 3 352 74 is_stmt 0 view .LVU514
	push	{r4, r5, r6, r7, lr}
.LCFI44:
	.loc 3 356 5 view .LVU515
	movs	r2, #6
	.loc 3 352 74 view .LVU516
	sub	sp, sp, #28
.LCFI45:
	.loc 3 352 74 view .LVU517
	mov	r4, r0
	mov	r7, r1
	.loc 3 356 5 view .LVU518
	bl	uECC_vli_set
.LVL217:
	.loc 3 358 5 is_stmt 1 view .LVU519
	movs	r2, #6
	adds	r1, r1, #24
.LVL218:
	.loc 3 358 5 is_stmt 0 view .LVU520
	mov	r0, sp
.LVL219:
	.loc 3 358 5 view .LVU521
	bl	uECC_vli_set
.LVL220:
	.loc 3 359 5 is_stmt 1 view .LVU522
	.loc 3 359 13 is_stmt 0 view .LVU523
	movs	r3, #6
	mov	r2, sp
	mov	r1, r4
	mov	r0, r4
	bl	uECC_vli_add
.LVL221:
	.loc 3 362 12 view .LVU524
	ldr	r3, [r7, #24]
	str	r3, [sp, #8]
	.loc 3 363 12 view .LVU525
	ldr	r3, [r7, #28]
	str	r3, [sp, #12]
	.loc 3 364 12 view .LVU526
	ldr	r3, [r7, #32]
	str	r3, [sp, #16]
	.loc 3 365 12 view .LVU527
	ldr	r3, [r7, #36]
	str	r3, [sp, #20]
	.loc 3 361 21 view .LVU528
	movs	r6, #0
	.loc 3 359 13 view .LVU529
	mov	r5, r0
.LVL222:
	.loc 3 361 5 is_stmt 1 view .LVU530
	.loc 3 366 14 is_stmt 0 view .LVU531
	movs	r3, #6
	mov	r2, sp
	mov	r1, r4
	mov	r0, r4
.LVL223:
	.loc 3 361 12 view .LVU532
	strd	r6, r6, [sp]
	.loc 3 362 5 is_stmt 1 view .LVU533
	.loc 3 363 5 view .LVU534
	.loc 3 364 5 view .LVU535
	.loc 3 365 5 view .LVU536
	.loc 3 366 5 view .LVU537
	.loc 3 366 14 is_stmt 0 view .LVU538
	bl	uECC_vli_add
.LVL224:
	.loc 3 368 21 view .LVU539
	ldr	r3, [r7, #40]
	str	r3, [sp, #8]
	.loc 3 368 12 view .LVU540
	str	r3, [sp]
	.loc 3 369 21 view .LVU541
	ldr	r3, [r7, #44]
	str	r3, [sp, #12]
	.loc 3 366 11 view .LVU542
	add	r5, r5, r0
.LVL225:
	.loc 3 368 5 is_stmt 1 view .LVU543
	.loc 3 369 5 view .LVU544
	.loc 3 369 12 is_stmt 0 view .LVU545
	str	r3, [sp, #4]
	.loc 3 370 5 is_stmt 1 view .LVU546
	.loc 3 371 14 is_stmt 0 view .LVU547
	mov	r2, sp
	movs	r3, #6
	mov	r1, r4
	mov	r0, r4
	.loc 3 370 12 view .LVU548
	strd	r6, r6, [sp, #16]
	.loc 3 371 5 is_stmt 1 view .LVU549
	.loc 3 371 14 is_stmt 0 view .LVU550
	bl	uECC_vli_add
.LVL226:
	.loc 3 373 21 view .LVU551
	ldr	r6, .L80
	.loc 3 371 11 view .LVU552
	add	r5, r5, r0
.LVL227:
	.loc 3 373 5 is_stmt 1 view .LVU553
.L78:
	.loc 3 373 11 view .LVU554
	cbnz	r5, .L79
	.loc 3 373 21 is_stmt 0 discriminator 1 view .LVU555
	movs	r2, #6
	mov	r1, r4
	mov	r0, r6
	bl	uECC_vli_cmp_unsafe
.LVL228:
	.loc 3 373 18 discriminator 1 view .LVU556
	cmp	r0, #1
	bne	.L79
.LVL229:
	.loc 3 376 1 view .LVU557
	add	sp, sp, #28
.LCFI46:
	@ sp needed
	pop	{r4, r5, r6, r7, pc}
.LVL230:
.L79:
.LCFI47:
	.loc 3 374 9 is_stmt 1 view .LVU558
	.loc 3 374 18 is_stmt 0 view .LVU559
	movs	r3, #6
	mov	r2, r6
	mov	r1, r4
	mov	r0, r4
	bl	uECC_vli_sub
.LVL231:
	.loc 3 374 15 view .LVU560
	subs	r5, r5, r0
.LVL232:
	.loc 3 374 15 view .LVU561
	b	.L78
.L81:
	.align	2
.L80:
	.word	.LANCHOR1+4
.LFE33:
	.size	vli_mmod_fast_secp192r1, .-vli_mmod_fast_secp192r1
	.section	.text.mod_sqrt_secp224r1_rs,"ax",%progbits
	.align	1
	.syntax unified
	.thumb
	.thumb_func
	.fpu fpv4-sp-d16
	.type	mod_sqrt_secp224r1_rs, %function
mod_sqrt_secp224r1_rs:
.LVL233:
.LFB35:
	.loc 3 459 58 is_stmt 1 view -0
	@ args = 8, pretend = 0, frame = 40
	@ frame_needed = 0, uses_anonymous_args = 0
	.loc 3 460 5 view .LVU563
	.loc 3 462 5 view .LVU564
	.loc 3 459 58 is_stmt 0 view .LVU565
	push	{r4, r5, r6, r7, r8, r9, r10, lr}
.LCFI48:
	.loc 3 462 5 view .LVU566
	ldr	r7, .L83
	.loc 3 459 58 view .LVU567
	sub	sp, sp, #48
.LCFI49:
	.loc 3 459 58 view .LVU568
	mov	r4, r2
	mov	r8, r1
	ldr	r10, [sp, #84]
	.loc 3 462 5 view .LVU569
	str	r3, [sp, #12]
	.loc 3 459 58 view .LVU570
	mov	r9, r0
	mov	r1, r3
.LVL234:
	.loc 3 462 5 view .LVU571
	mov	r2, r7
.LVL235:
	.loc 3 462 5 view .LVU572
	add	r0, sp, #20
.LVL236:
	.loc 3 462 5 view .LVU573
	bl	uECC_vli_modSquare_fast
.LVL237:
	.loc 3 463 5 is_stmt 1 view .LVU574
	.loc 3 464 5 is_stmt 0 view .LVU575
	adds	r5, r7, #4
	movs	r6, #7
	.loc 3 463 5 view .LVU576
	ldr	r2, [sp, #80]
	ldr	r1, [sp, #12]
	mov	r3, r7
	mov	r0, r8
	bl	uECC_vli_modMult_fast
.LVL238:
	.loc 3 464 5 is_stmt 1 view .LVU577
	mov	r3, r5
	mov	r2, r10
	add	r1, sp, #20
	mov	r0, r9
	str	r6, [sp]
	bl	uECC_vli_modAdd
.LVL239:
	.loc 3 465 5 view .LVU578
	mov	r3, r5
	mov	r2, r8
	mov	r1, r8
	mov	r0, r8
	str	r6, [sp]
	bl	uECC_vli_modAdd
.LVL240:
	.loc 3 466 5 view .LVU579
	mov	r3, r7
	mov	r2, r10
	add	r1, sp, #20
	mov	r0, r4
	bl	uECC_vli_modMult_fast
.LVL241:
	.loc 3 467 5 view .LVU580
	mov	r3, r5
	mov	r2, r4
	mov	r1, r4
	mov	r0, r4
	str	r6, [sp]
	bl	uECC_vli_modAdd
.LVL242:
	.loc 3 468 5 view .LVU581
	str	r6, [sp]
	mov	r3, r5
	mov	r2, r4
	mov	r1, r4
	mov	r0, r4
	bl	uECC_vli_modAdd
.LVL243:
	.loc 3 469 1 is_stmt 0 view .LVU582
	add	sp, sp, #48
.LCFI50:
	@ sp needed
	pop	{r4, r5, r6, r7, r8, r9, r10, pc}
.LVL244:
.L84:
	.loc 3 469 1 view .LVU583
	.align	2
.L83:
	.word	.LANCHOR2
.LFE35:
	.size	mod_sqrt_secp224r1_rs, .-mod_sqrt_secp224r1_rs
	.section	.text.vli_mmod_fast_secp224r1,"ax",%progbits
	.align	1
	.syntax unified
	.thumb
	.thumb_func
	.fpu fpv4-sp-d16
	.type	vli_mmod_fast_secp224r1, %function
vli_mmod_fast_secp224r1:
.LVL245:
.LFB40:
	.loc 3 630 1 is_stmt 1 view -0
	@ args = 0, pretend = 0, frame = 32
	@ frame_needed = 0, uses_anonymous_args = 0
	.loc 3 631 5 view .LVU585
	.loc 3 632 5 view .LVU586
	.loc 3 635 5 view .LVU587
	.loc 3 630 1 is_stmt 0 view .LVU588
	push	{r4, r5, r6, r7, r8, lr}
.LCFI51:
	.loc 3 635 5 view .LVU589
	movs	r2, #7
	.loc 3 630 1 view .LVU590
	sub	sp, sp, #32
.LCFI52:
	.loc 3 630 1 view .LVU591
	mov	r4, r1
	mov	r5, r0
	.loc 3 635 5 view .LVU592
	bl	uECC_vli_set
.LVL246:
	.loc 3 638 5 is_stmt 1 view .LVU593
	.loc 3 639 12 is_stmt 0 view .LVU594
	ldr	r3, [r1, #28]
	str	r3, [sp, #16]
	.loc 3 640 12 view .LVU595
	ldr	r3, [r1, #32]
	str	r3, [sp, #20]
	.loc 3 641 12 view .LVU596
	ldr	r3, [r1, #36]
	str	r3, [sp, #24]
	.loc 3 642 12 view .LVU597
	ldr	r3, [r1, #40]
	str	r3, [sp, #28]
	.loc 3 638 30 view .LVU598
	mov	r8, #0
	.loc 3 643 13 view .LVU599
	movs	r3, #7
	add	r2, sp, #4
	mov	r1, r0
.LVL247:
	.loc 3 638 21 view .LVU600
	strd	r8, r8, [sp, #8]
	.loc 3 638 12 view .LVU601
	str	r8, [sp, #4]
	.loc 3 639 5 is_stmt 1 view .LVU602
	.loc 3 640 5 view .LVU603
	.loc 3 641 5 view .LVU604
	.loc 3 642 5 view .LVU605
	.loc 3 643 5 view .LVU606
	.loc 3 643 13 is_stmt 0 view .LVU607
	bl	uECC_vli_add
.LVL248:
	.loc 3 646 12 view .LVU608
	ldr	r3, [r4, #44]
	str	r3, [sp, #16]
	.loc 3 647 12 view .LVU609
	ldr	r3, [r4, #48]
	str	r3, [sp, #20]
	.loc 3 648 12 view .LVU610
	ldr	r3, [r4, #52]
	.loc 3 671 22 view .LVU611
	ldr	r6, .L93
	.loc 3 649 12 view .LVU612
	strd	r3, r8, [sp, #24]
	.loc 3 643 13 view .LVU613
	mov	r7, r0
.LVL249:
	.loc 3 646 5 is_stmt 1 view .LVU614
	.loc 3 647 5 view .LVU615
	.loc 3 648 5 view .LVU616
	.loc 3 650 5 view .LVU617
	.loc 3 650 14 is_stmt 0 view .LVU618
	movs	r3, #7
	add	r2, sp, #4
	mov	r1, r5
	mov	r0, r5
.LVL250:
	.loc 3 650 14 view .LVU619
	bl	uECC_vli_add
.LVL251:
	.loc 3 653 12 view .LVU620
	ldr	r3, [r4, #28]
	str	r3, [sp, #4]
	.loc 3 654 12 view .LVU621
	ldr	r3, [r4, #32]
	str	r3, [sp, #8]
	.loc 3 655 12 view .LVU622
	ldr	r3, [r4, #36]
	str	r3, [sp, #12]
	.loc 3 656 12 view .LVU623
	ldr	r3, [r4, #40]
	str	r3, [sp, #16]
	.loc 3 657 12 view .LVU624
	ldr	r3, [r4, #44]
	str	r3, [sp, #20]
	.loc 3 658 12 view .LVU625
	ldr	r3, [r4, #48]
	str	r3, [sp, #24]
	.loc 3 659 12 view .LVU626
	ldr	r3, [r4, #52]
	str	r3, [sp, #28]
	.loc 3 650 11 view .LVU627
	add	r7, r7, r0
.LVL252:
	.loc 3 653 5 is_stmt 1 view .LVU628
	.loc 3 654 5 view .LVU629
	.loc 3 655 5 view .LVU630
	.loc 3 656 5 view .LVU631
	.loc 3 657 5 view .LVU632
	.loc 3 658 5 view .LVU633
	.loc 3 659 5 view .LVU634
	.loc 3 660 5 view .LVU635
	.loc 3 660 14 is_stmt 0 view .LVU636
	movs	r3, #7
	add	r2, sp, #4
	mov	r1, r5
	mov	r0, r5
	bl	uECC_vli_sub
.LVL253:
	.loc 3 663 12 view .LVU637
	ldr	r3, [r4, #44]
	str	r3, [sp, #4]
	.loc 3 664 12 view .LVU638
	ldr	r3, [r4, #48]
	str	r3, [sp, #8]
	.loc 3 665 12 view .LVU639
	ldr	r3, [r4, #52]
	str	r3, [sp, #12]
	.loc 3 660 11 view .LVU640
	subs	r7, r7, r0
.LVL254:
	.loc 3 663 5 is_stmt 1 view .LVU641
	.loc 3 664 5 view .LVU642
	.loc 3 665 5 view .LVU643
	.loc 3 666 5 view .LVU644
	.loc 3 667 14 is_stmt 0 view .LVU645
	movs	r3, #7
	add	r2, sp, #4
	mov	r1, r5
	mov	r0, r5
	.loc 3 666 30 view .LVU646
	strd	r8, r8, [sp, #24]
	.loc 3 666 12 view .LVU647
	strd	r8, r8, [sp, #16]
	.loc 3 667 5 is_stmt 1 view .LVU648
	.loc 3 667 14 is_stmt 0 view .LVU649
	bl	uECC_vli_sub
.LVL255:
	.loc 3 669 5 is_stmt 1 view .LVU650
	.loc 3 669 8 is_stmt 0 view .LVU651
	subs	r4, r7, r0
.LVL256:
	.loc 3 669 8 view .LVU652
	bmi	.L87
.LVL257:
.L86:
	.loc 3 674 15 is_stmt 1 view .LVU653
	cbnz	r4, .L88
	.loc 3 674 25 is_stmt 0 discriminator 1 view .LVU654
	movs	r2, #7
	mov	r1, r5
	mov	r0, r6
	bl	uECC_vli_cmp_unsafe
.LVL258:
	.loc 3 674 22 discriminator 1 view .LVU655
	cmp	r0, #1
	beq	.L85
.L88:
	.loc 3 675 13 is_stmt 1 view .LVU656
	.loc 3 675 22 is_stmt 0 view .LVU657
	movs	r3, #7
	mov	r2, r6
	mov	r1, r5
	mov	r0, r5
	bl	uECC_vli_sub
.LVL259:
	.loc 3 675 19 view .LVU658
	subs	r4, r4, r0
.LVL260:
	.loc 3 675 19 view .LVU659
	b	.L86
.LVL261:
.L87:
	.loc 3 670 9 is_stmt 1 discriminator 1 view .LVU660
	.loc 3 671 13 discriminator 1 view .LVU661
	.loc 3 671 22 is_stmt 0 discriminator 1 view .LVU662
	movs	r3, #7
	mov	r2, r6
	mov	r1, r5
	mov	r0, r5
	bl	uECC_vli_add
.LVL262:
	.loc 3 672 17 is_stmt 1 discriminator 1 view .LVU663
	.loc 3 672 9 is_stmt 0 discriminator 1 view .LVU664
	adds	r4, r4, r0
.LVL263:
	.loc 3 672 9 discriminator 1 view .LVU665
	bmi	.L87
.LVL264:
.L85:
	.loc 3 678 1 view .LVU666
	add	sp, sp, #32
.LCFI53:
	@ sp needed
	pop	{r4, r5, r6, r7, r8, pc}
.LVL265:
.L94:
	.loc 3 678 1 view .LVU667
	.align	2
.L93:
	.word	.LANCHOR2+4
.LFE40:
	.size	vli_mmod_fast_secp224r1, .-vli_mmod_fast_secp224r1
	.section	.text.vli_mmod_fast_secp256r1,"ax",%progbits
	.align	1
	.syntax unified
	.thumb
	.thumb_func
	.fpu fpv4-sp-d16
	.type	vli_mmod_fast_secp256r1, %function
vli_mmod_fast_secp256r1:
.LVL266:
.LFB42:
	.loc 3 883 74 is_stmt 1 view -0
	@ args = 0, pretend = 0, frame = 32
	@ frame_needed = 0, uses_anonymous_args = 0
	.loc 3 884 5 view .LVU669
	.loc 3 885 5 view .LVU670
	.loc 3 888 5 view .LVU671
	.loc 3 883 74 is_stmt 0 view .LVU672
	push	{r4, r5, r6, r7, r9, lr}
.LCFI54:
	.loc 3 888 5 view .LVU673
	movs	r2, #8
	.loc 3 883 74 view .LVU674
	sub	sp, sp, #32
.LCFI55:
	.loc 3 883 74 view .LVU675
	mov	r4, r1
	mov	r9, r0
	.loc 3 888 5 view .LVU676
	bl	uECC_vli_set
.LVL267:
	.loc 3 891 5 is_stmt 1 view .LVU677
	.loc 3 892 12 is_stmt 0 view .LVU678
	ldr	r3, [r1, #44]
	str	r3, [sp, #12]
	.loc 3 893 12 view .LVU679
	ldr	r3, [r1, #48]
	str	r3, [sp, #16]
	.loc 3 894 12 view .LVU680
	ldr	r3, [r1, #52]
	str	r3, [sp, #20]
	.loc 3 895 12 view .LVU681
	ldr	r3, [r1, #56]
	str	r3, [sp, #24]
	.loc 3 896 12 view .LVU682
	ldr	r3, [r1, #60]
	str	r3, [sp, #28]
	.loc 3 891 30 view .LVU683
	movs	r7, #0
	.loc 3 897 13 view .LVU684
	movs	r3, #8
	mov	r2, sp
	mov	r1, sp
.LVL268:
	.loc 3 897 13 view .LVU685
	mov	r0, sp
.LVL269:
	.loc 3 891 21 view .LVU686
	strd	r7, r7, [sp, #4]
	.loc 3 891 12 view .LVU687
	str	r7, [sp]
	.loc 3 892 5 is_stmt 1 view .LVU688
	.loc 3 893 5 view .LVU689
	.loc 3 894 5 view .LVU690
	.loc 3 895 5 view .LVU691
	.loc 3 896 5 view .LVU692
	.loc 3 897 5 view .LVU693
	.loc 3 897 13 is_stmt 0 view .LVU694
	bl	uECC_vli_add
.LVL270:
	.loc 3 898 14 view .LVU695
	movs	r3, #8
	.loc 3 897 13 view .LVU696
	mov	r5, r0
.LVL271:
	.loc 3 898 5 is_stmt 1 view .LVU697
	.loc 3 898 14 is_stmt 0 view .LVU698
	mov	r2, sp
	mov	r1, r9
	mov	r0, r9
.LVL272:
	.loc 3 898 14 view .LVU699
	bl	uECC_vli_add
.LVL273:
	.loc 3 901 12 view .LVU700
	ldr	r3, [r4, #48]
	str	r3, [sp, #12]
	.loc 3 902 12 view .LVU701
	ldr	r3, [r4, #52]
	str	r3, [sp, #16]
	.loc 3 903 12 view .LVU702
	ldr	r3, [r4, #56]
	str	r3, [sp, #20]
	.loc 3 904 12 view .LVU703
	ldr	r3, [r4, #60]
	.loc 3 898 11 view .LVU704
	add	r5, r5, r0
.LVL274:
	.loc 3 901 5 is_stmt 1 view .LVU705
	.loc 3 902 5 view .LVU706
	.loc 3 903 5 view .LVU707
	.loc 3 904 5 view .LVU708
	.loc 3 905 12 is_stmt 0 view .LVU709
	strd	r3, r7, [sp, #24]
	.loc 3 906 5 is_stmt 1 view .LVU710
	.loc 3 906 14 is_stmt 0 view .LVU711
	mov	r2, sp
	movs	r3, #8
	mov	r1, sp
	mov	r0, sp
	bl	uECC_vli_add
.LVL275:
	.loc 3 907 14 view .LVU712
	movs	r3, #8
	.loc 3 906 11 view .LVU713
	add	r5, r5, r0
.LVL276:
	.loc 3 907 5 is_stmt 1 view .LVU714
	.loc 3 907 14 is_stmt 0 view .LVU715
	mov	r2, sp
	mov	r1, r9
	mov	r0, r9
	bl	uECC_vli_add
.LVL277:
	.loc 3 910 12 view .LVU716
	ldr	r3, [r4, #32]
	str	r3, [sp]
	.loc 3 911 12 view .LVU717
	ldr	r3, [r4, #36]
	str	r3, [sp, #4]
	.loc 3 912 12 view .LVU718
	ldr	r3, [r4, #40]
	str	r3, [sp, #8]
	.loc 3 914 12 view .LVU719
	ldr	r3, [r4, #56]
	str	r3, [sp, #24]
	.loc 3 915 12 view .LVU720
	ldr	r3, [r4, #60]
	str	r3, [sp, #28]
	.loc 3 907 11 view .LVU721
	add	r5, r5, r0
.LVL278:
	.loc 3 910 5 is_stmt 1 view .LVU722
	.loc 3 911 5 view .LVU723
	.loc 3 912 5 view .LVU724
	.loc 3 913 5 view .LVU725
	.loc 3 916 14 is_stmt 0 view .LVU726
	movs	r3, #8
	mov	r2, sp
	mov	r1, r9
	mov	r0, r9
	.loc 3 913 21 view .LVU727
	strd	r7, r7, [sp, #16]
	.loc 3 913 12 view .LVU728
	str	r7, [sp, #12]
	.loc 3 914 5 is_stmt 1 view .LVU729
	.loc 3 915 5 view .LVU730
	.loc 3 916 5 view .LVU731
	.loc 3 916 14 is_stmt 0 view .LVU732
	bl	uECC_vli_add
.LVL279:
	.loc 3 919 12 view .LVU733
	ldr	r3, [r4, #36]
	str	r3, [sp]
	.loc 3 920 12 view .LVU734
	ldr	r3, [r4, #40]
	.loc 3 923 12 view .LVU735
	ldr	r2, [r4, #56]
	.loc 3 920 12 view .LVU736
	str	r3, [sp, #4]
	.loc 3 921 12 view .LVU737
	ldr	r3, [r4, #44]
	str	r3, [sp, #8]
	.loc 3 923 12 view .LVU738
	str	r2, [sp, #16]
	.loc 3 922 12 view .LVU739
	ldr	r3, [r4, #52]
	.loc 3 924 12 view .LVU740
	ldr	r2, [r4, #60]
	.loc 3 922 12 view .LVU741
	str	r3, [sp, #12]
	.loc 3 925 12 view .LVU742
	strd	r2, r3, [sp, #20]
	.loc 3 926 12 view .LVU743
	ldr	r3, [r4, #32]
	str	r3, [sp, #28]
	.loc 3 916 11 view .LVU744
	adds	r6, r5, r0
.LVL280:
	.loc 3 919 5 is_stmt 1 view .LVU745
	.loc 3 920 5 view .LVU746
	.loc 3 921 5 view .LVU747
	.loc 3 922 5 view .LVU748
	.loc 3 923 5 view .LVU749
	.loc 3 924 5 view .LVU750
	.loc 3 926 5 view .LVU751
	.loc 3 927 5 view .LVU752
	.loc 3 927 14 is_stmt 0 view .LVU753
	movs	r3, #8
	mov	r2, sp
	mov	r1, r9
	mov	r0, r9
	bl	uECC_vli_add
.LVL281:
	.loc 3 930 12 view .LVU754
	ldr	r3, [r4, #44]
	str	r3, [sp]
	.loc 3 931 12 view .LVU755
	ldr	r3, [r4, #48]
	str	r3, [sp, #4]
	.loc 3 932 12 view .LVU756
	ldr	r3, [r4, #52]
	str	r3, [sp, #8]
	.loc 3 934 12 view .LVU757
	ldr	r3, [r4, #32]
	str	r3, [sp, #24]
	.loc 3 935 12 view .LVU758
	ldr	r3, [r4, #40]
	str	r3, [sp, #28]
	.loc 3 927 11 view .LVU759
	adds	r5, r6, r0
.LVL282:
	.loc 3 930 5 is_stmt 1 view .LVU760
	.loc 3 931 5 view .LVU761
	.loc 3 932 5 view .LVU762
	.loc 3 933 5 view .LVU763
	.loc 3 936 14 is_stmt 0 view .LVU764
	movs	r3, #8
	mov	r2, sp
	mov	r1, r9
	mov	r0, r9
	.loc 3 933 21 view .LVU765
	strd	r7, r7, [sp, #16]
	.loc 3 933 12 view .LVU766
	str	r7, [sp, #12]
	.loc 3 934 5 is_stmt 1 view .LVU767
	.loc 3 935 5 view .LVU768
	.loc 3 936 5 view .LVU769
	.loc 3 936 14 is_stmt 0 view .LVU770
	bl	uECC_vli_sub
.LVL283:
	.loc 3 939 12 view .LVU771
	ldr	r3, [r4, #48]
	str	r3, [sp]
	.loc 3 940 12 view .LVU772
	ldr	r3, [r4, #52]
	str	r3, [sp, #4]
	.loc 3 941 12 view .LVU773
	ldr	r3, [r4, #56]
	str	r3, [sp, #8]
	.loc 3 942 12 view .LVU774
	ldr	r3, [r4, #60]
	str	r3, [sp, #12]
	.loc 3 944 12 view .LVU775
	ldr	r3, [r4, #36]
	str	r3, [sp, #24]
	.loc 3 945 12 view .LVU776
	ldr	r3, [r4, #44]
	str	r3, [sp, #28]
	.loc 3 936 11 view .LVU777
	subs	r6, r5, r0
.LVL284:
	.loc 3 939 5 is_stmt 1 view .LVU778
	.loc 3 940 5 view .LVU779
	.loc 3 941 5 view .LVU780
	.loc 3 942 5 view .LVU781
	.loc 3 943 5 view .LVU782
	.loc 3 946 14 is_stmt 0 view .LVU783
	movs	r3, #8
	mov	r2, sp
	mov	r1, r9
	mov	r0, r9
	.loc 3 943 12 view .LVU784
	strd	r7, r7, [sp, #16]
	.loc 3 944 5 is_stmt 1 view .LVU785
	.loc 3 945 5 view .LVU786
	.loc 3 946 5 view .LVU787
	.loc 3 946 14 is_stmt 0 view .LVU788
	bl	uECC_vli_sub
.LVL285:
	.loc 3 949 12 view .LVU789
	ldr	r3, [r4, #52]
	str	r3, [sp]
	.loc 3 950 12 view .LVU790
	ldr	r3, [r4, #56]
	str	r3, [sp, #4]
	.loc 3 951 12 view .LVU791
	ldr	r3, [r4, #60]
	str	r3, [sp, #8]
	.loc 3 952 12 view .LVU792
	ldr	r3, [r4, #32]
	str	r3, [sp, #12]
	.loc 3 953 12 view .LVU793
	ldr	r3, [r4, #36]
	str	r3, [sp, #16]
	.loc 3 954 12 view .LVU794
	ldr	r3, [r4, #40]
	.loc 3 955 12 view .LVU795
	strd	r3, r7, [sp, #20]
	.loc 3 956 12 view .LVU796
	ldr	r3, [r4, #48]
	str	r3, [sp, #28]
	.loc 3 946 11 view .LVU797
	subs	r6, r6, r0
.LVL286:
	.loc 3 949 5 is_stmt 1 view .LVU798
	.loc 3 950 5 view .LVU799
	.loc 3 951 5 view .LVU800
	.loc 3 952 5 view .LVU801
	.loc 3 953 5 view .LVU802
	.loc 3 954 5 view .LVU803
	.loc 3 956 5 view .LVU804
	.loc 3 957 5 view .LVU805
	.loc 3 957 14 is_stmt 0 view .LVU806
	movs	r3, #8
	mov	r2, sp
	mov	r1, r9
	mov	r0, r9
	bl	uECC_vli_sub
.LVL287:
	.loc 3 960 12 view .LVU807
	ldr	r3, [r4, #56]
	str	r3, [sp]
	.loc 3 961 12 view .LVU808
	ldr	r3, [r4, #60]
	.loc 3 962 12 view .LVU809
	strd	r3, r7, [sp, #4]
	.loc 3 963 12 view .LVU810
	ldr	r3, [r4, #36]
	str	r3, [sp, #12]
	.loc 3 964 12 view .LVU811
	ldr	r3, [r4, #40]
	str	r3, [sp, #16]
	.loc 3 965 12 view .LVU812
	ldr	r3, [r4, #44]
	.loc 3 966 12 view .LVU813
	strd	r3, r7, [sp, #20]
	.loc 3 967 12 view .LVU814
	ldr	r3, [r4, #52]
	str	r3, [sp, #28]
	.loc 3 957 11 view .LVU815
	subs	r6, r6, r0
.LVL288:
	.loc 3 960 5 is_stmt 1 view .LVU816
	.loc 3 961 5 view .LVU817
	.loc 3 963 5 view .LVU818
	.loc 3 964 5 view .LVU819
	.loc 3 965 5 view .LVU820
	.loc 3 967 5 view .LVU821
	.loc 3 968 5 view .LVU822
	.loc 3 968 14 is_stmt 0 view .LVU823
	movs	r3, #8
	mov	r2, sp
	mov	r1, r9
	mov	r0, r9
	bl	uECC_vli_sub
.LVL289:
	.loc 3 970 5 is_stmt 1 view .LVU824
	.loc 3 970 8 is_stmt 0 view .LVU825
	subs	r6, r6, r0
.LVL290:
	.loc 3 972 22 view .LVU826
	ldr	r4, .L103
.LVL291:
	.loc 3 970 8 view .LVU827
	bmi	.L97
.LVL292:
.L96:
	.loc 3 975 15 is_stmt 1 view .LVU828
	cbnz	r6, .L98
	.loc 3 975 25 is_stmt 0 discriminator 1 view .LVU829
	movs	r2, #8
	mov	r1, r9
	mov	r0, r4
	bl	uECC_vli_cmp_unsafe
.LVL293:
	.loc 3 975 22 discriminator 1 view .LVU830
	cmp	r0, #1
	beq	.L95
.L98:
	.loc 3 976 13 is_stmt 1 view .LVU831
	.loc 3 976 22 is_stmt 0 view .LVU832
	movs	r3, #8
	mov	r2, r4
	mov	r1, r9
	mov	r0, r9
	bl	uECC_vli_sub
.LVL294:
	.loc 3 976 19 view .LVU833
	subs	r6, r6, r0
.LVL295:
	.loc 3 976 19 view .LVU834
	b	.L96
.LVL296:
.L97:
	.loc 3 971 9 is_stmt 1 discriminator 1 view .LVU835
	.loc 3 972 13 discriminator 1 view .LVU836
	.loc 3 972 22 is_stmt 0 discriminator 1 view .LVU837
	movs	r3, #8
	mov	r2, r4
	mov	r1, r9
	mov	r0, r9
	bl	uECC_vli_add
.LVL297:
	.loc 3 973 17 is_stmt 1 discriminator 1 view .LVU838
	.loc 3 973 9 is_stmt 0 discriminator 1 view .LVU839
	adds	r6, r6, r0
.LVL298:
	.loc 3 973 9 discriminator 1 view .LVU840
	bmi	.L97
.LVL299:
.L95:
	.loc 3 979 1 view .LVU841
	add	sp, sp, #32
.LCFI56:
	@ sp needed
	pop	{r4, r5, r6, r7, r9, pc}
.LVL300:
.L104:
	.loc 3 979 1 view .LVU842
	.align	2
.L103:
	.word	.LANCHOR3+4
.LFE42:
	.size	vli_mmod_fast_secp256r1, .-vli_mmod_fast_secp256r1
	.section	.text.x_side_secp256k1,"ax",%progbits
	.align	1
	.syntax unified
	.thumb
	.thumb_func
	.fpu fpv4-sp-d16
	.type	x_side_secp256k1, %function
x_side_secp256k1:
.LVL301:
.LFB45:
	.loc 3 1149 91 is_stmt 1 view -0
	@ args = 0, pretend = 0, frame = 0
	@ frame_needed = 0, uses_anonymous_args = 0
	.loc 3 1150 5 view .LVU844
	.loc 3 1149 91 is_stmt 0 view .LVU845
	push	{r0, r1, r4, r5, r6, lr}
.LCFI57:
	.loc 3 1149 91 view .LVU846
	mov	r4, r0
	mov	r5, r2
	mov	r6, r1
	.loc 3 1150 5 view .LVU847
	bl	uECC_vli_modSquare_fast
.LVL302:
	.loc 3 1151 5 is_stmt 1 view .LVU848
	mov	r3, r5
	mov	r2, r6
	mov	r1, r4
	mov	r0, r4
	bl	uECC_vli_modMult_fast
.LVL303:
	.loc 3 1152 5 view .LVU849
	movs	r3, #8
	str	r3, [sp]
	add	r2, r5, #132
	adds	r3, r5, #4
	mov	r1, r4
	mov	r0, r4
	bl	uECC_vli_modAdd
.LVL304:
	.loc 3 1153 1 is_stmt 0 view .LVU850
	add	sp, sp, #8
.LCFI58:
	@ sp needed
	pop	{r4, r5, r6, pc}
	.loc 3 1153 1 view .LVU851
.LFE45:
	.size	x_side_secp256k1, .-x_side_secp256k1
	.section	.text.omega_mult_secp256k1,"ax",%progbits
	.align	1
	.syntax unified
	.thumb
	.thumb_func
	.fpu fpv4-sp-d16
	.type	omega_mult_secp256k1, %function
omega_mult_secp256k1:
.LVL305:
.LFB47:
	.loc 3 1211 77 is_stmt 1 view -0
	@ args = 0, pretend = 0, frame = 0
	@ frame_needed = 0, uses_anonymous_args = 0
	.loc 3 1213 5 view .LVU853
	.loc 3 1214 5 view .LVU854
	.loc 3 1216 5 view .LVU855
	.loc 3 1216 17 view .LVU856
	.loc 3 1211 77 is_stmt 0 view .LVU857
	push	{r3, r4, r5, r6, r7, lr}
.LCFI59:
	.loc 3 1211 77 view .LVU858
	mov	r2, r1
	mov	r4, r0
	subs	r5, r1, #4
	subs	r6, r0, #4
	add	r7, r1, #28
	.loc 3 1213 14 view .LVU859
	movs	r3, #0
.LBB43:
	.loc 3 1217 18 view .LVU860
	movw	ip, #977
.LVL306:
.L107:
	.loc 3 1217 9 is_stmt 1 discriminator 3 view .LVU861
	.loc 3 1217 18 is_stmt 0 discriminator 3 view .LVU862
	mov	r0, r3
	ldr	r3, [r5, #4]!
.LVL307:
	.loc 3 1217 18 discriminator 3 view .LVU863
	movs	r1, #0
	umlal	r0, r1, ip, r3
.LVL308:
	.loc 3 1218 9 is_stmt 1 discriminator 3 view .LVU864
.LBE43:
	.loc 3 1216 5 is_stmt 0 discriminator 3 view .LVU865
	cmp	r7, r5
.LBB44:
	.loc 3 1218 21 discriminator 3 view .LVU866
	str	r0, [r6, #4]!
	.loc 3 1219 9 is_stmt 1 discriminator 3 view .LVU867
	.loc 3 1219 15 is_stmt 0 discriminator 3 view .LVU868
	mov	r3, r1
.LVL309:
	.loc 3 1219 15 discriminator 3 view .LVU869
.LBE44:
	.loc 3 1216 42 is_stmt 1 discriminator 3 view .LVU870
	.loc 3 1216 17 discriminator 3 view .LVU871
	.loc 3 1216 5 is_stmt 0 discriminator 3 view .LVU872
	bne	.L107
	.loc 3 1221 5 is_stmt 1 view .LVU873
	.loc 3 1221 33 is_stmt 0 view .LVU874
	str	r1, [r4, #32]
	.loc 3 1223 5 is_stmt 1 view .LVU875
	.loc 3 1224 29 is_stmt 0 view .LVU876
	adds	r1, r4, #4
	.loc 3 1224 9 view .LVU877
	movs	r3, #8
	mov	r0, r1
.LVL310:
	.loc 3 1224 9 view .LVU878
	bl	uECC_vli_add
.LVL311:
	.loc 3 1223 37 view .LVU879
	str	r0, [r4, #36]
	.loc 3 1225 1 view .LVU880
	pop	{r3, r4, r5, r6, r7, pc}
	.loc 3 1225 1 view .LVU881
.LFE47:
	.size	omega_mult_secp256k1, .-omega_mult_secp256k1
	.section	.text.vli_mmod_fast_secp256k1,"ax",%progbits
	.align	1
	.syntax unified
	.thumb
	.thumb_func
	.fpu fpv4-sp-d16
	.type	vli_mmod_fast_secp256k1, %function
vli_mmod_fast_secp256k1:
.LVL312:
.LFB46:
	.loc 3 1157 80 is_stmt 1 view -0
	@ args = 0, pretend = 0, frame = 64
	@ frame_needed = 0, uses_anonymous_args = 0
	.loc 3 1158 5 view .LVU883
	.loc 3 1159 5 view .LVU884
	.loc 3 1161 5 view .LVU885
	.loc 3 1157 80 is_stmt 0 view .LVU886
	push	{r4, r5, r6, lr}
.LCFI60:
	sub	sp, sp, #64
.LCFI61:
	.loc 3 1157 80 view .LVU887
	mov	r6, r1
	mov	r4, r0
	.loc 3 1161 5 view .LVU888
	movs	r1, #8
.LVL313:
	.loc 3 1161 5 view .LVU889
	mov	r0, sp
.LVL314:
	.loc 3 1161 5 view .LVU890
	bl	uECC_vli_clear
.LVL315:
	.loc 3 1162 5 is_stmt 1 view .LVU891
	movs	r1, #8
	add	r0, sp, #32
	bl	uECC_vli_clear
.LVL316:
	.loc 3 1164 5 view .LVU892
	add	r1, r6, #32
	mov	r0, sp
	bl	omega_mult_secp256k1
.LVL317:
	.loc 3 1166 5 view .LVU893
	.loc 3 1166 13 is_stmt 0 view .LVU894
	movs	r3, #8
	mov	r2, sp
	mov	r1, r6
	mov	r0, r4
	bl	uECC_vli_add
.LVL318:
	.loc 3 1167 5 view .LVU895
	movs	r1, #8
	.loc 3 1166 13 view .LVU896
	mov	r5, r0
.LVL319:
	.loc 3 1167 5 is_stmt 1 view .LVU897
	mov	r0, r6
.LVL320:
	.loc 3 1167 5 is_stmt 0 view .LVU898
	bl	uECC_vli_clear
.LVL321:
	.loc 3 1168 5 is_stmt 1 view .LVU899
	add	r1, sp, #32
	bl	omega_mult_secp256k1
.LVL322:
	.loc 3 1169 5 view .LVU900
	.loc 3 1169 14 is_stmt 0 view .LVU901
	mov	r2, r6
	movs	r3, #8
	mov	r1, r4
	mov	r0, r4
	bl	uECC_vli_add
.LVL323:
	.loc 3 1173 9 view .LVU902
	ldr	r6, .L113
.LVL324:
	.loc 3 1169 11 view .LVU903
	add	r5, r5, r0
.LVL325:
	.loc 3 1171 5 is_stmt 1 view .LVU904
.L110:
	.loc 3 1171 11 view .LVU905
	cbnz	r5, .L111
	.loc 3 1175 5 view .LVU906
	.loc 3 1175 9 is_stmt 0 view .LVU907
	ldr	r1, .L113
	movs	r2, #8
	mov	r0, r4
	bl	uECC_vli_cmp_unsafe
.LVL326:
	.loc 3 1175 8 view .LVU908
	cmp	r0, #0
	ble	.L109
	.loc 3 1176 9 is_stmt 1 view .LVU909
	ldr	r2, .L113
	movs	r3, #8
	mov	r1, r4
	mov	r0, r4
	bl	uECC_vli_sub
.LVL327:
.L109:
	.loc 3 1178 1 is_stmt 0 view .LVU910
	add	sp, sp, #64
.LCFI62:
	@ sp needed
	pop	{r4, r5, r6, pc}
.LVL328:
.L111:
.LCFI63:
	.loc 3 1172 9 is_stmt 1 view .LVU911
	.loc 3 1173 9 is_stmt 0 view .LVU912
	movs	r3, #8
	mov	r2, r6
	mov	r1, r4
	mov	r0, r4
	.loc 3 1172 9 view .LVU913
	subs	r5, r5, #1
.LVL329:
	.loc 3 1173 9 is_stmt 1 view .LVU914
	bl	uECC_vli_sub
.LVL330:
	b	.L110
.L114:
	.align	2
.L113:
	.word	.LANCHOR4+4
.LFE46:
	.size	vli_mmod_fast_secp256k1, .-vli_mmod_fast_secp256k1
	.section	.text.apply_z,"ax",%progbits
	.align	1
	.syntax unified
	.thumb
	.thumb_func
	.fpu fpv4-sp-d16
	.type	apply_z, %function
apply_z:
.LVL331:
.LFB48:
	.loc 2 757 39 view -0
	@ args = 0, pretend = 0, frame = 40
	@ frame_needed = 0, uses_anonymous_args = 0
	.loc 2 758 5 view .LVU916
	.loc 2 760 5 view .LVU917
	.loc 2 757 39 is_stmt 0 view .LVU918
	push	{r4, r5, r6, lr}
.LCFI64:
	mov	r4, r2
	sub	sp, sp, #40
.LCFI65:
	.loc 2 757 39 view .LVU919
	mov	r6, r0
	mov	r5, r1
	.loc 2 760 5 view .LVU920
	mov	r2, r3
.LVL332:
	.loc 2 760 5 view .LVU921
	mov	r1, r4
.LVL333:
	.loc 2 760 5 view .LVU922
	add	r0, sp, #8
.LVL334:
	.loc 2 760 5 view .LVU923
	str	r3, [sp, #4]
	bl	uECC_vli_modSquare_fast
.LVL335:
	.loc 2 761 5 is_stmt 1 view .LVU924
	ldr	r3, [sp, #4]
	add	r2, sp, #8
	mov	r1, r6
	mov	r0, r6
	bl	uECC_vli_modMult_fast
.LVL336:
	.loc 2 762 5 view .LVU925
	add	r1, sp, #8
	ldr	r3, [sp, #4]
	mov	r2, r4
	mov	r0, r1
	bl	uECC_vli_modMult_fast
.LVL337:
	.loc 2 763 5 view .LVU926
	ldr	r3, [sp, #4]
	add	r2, sp, #8
	mov	r1, r5
	mov	r0, r5
	bl	uECC_vli_modMult_fast
.LVL338:
	.loc 2 764 1 is_stmt 0 view .LVU927
	add	sp, sp, #40
.LCFI66:
	@ sp needed
	pop	{r4, r5, r6, pc}
	.loc 2 764 1 view .LVU928
.LFE48:
	.size	apply_z, .-apply_z
	.section	.text.XYcZ_add,"ax",%progbits
	.align	1
	.syntax unified
	.thumb
	.thumb_func
	.fpu fpv4-sp-d16
	.type	XYcZ_add, %function
XYcZ_add:
.LVL339:
.LFB50:
	.loc 2 798 40 is_stmt 1 view -0
	@ args = 4, pretend = 0, frame = 32
	@ frame_needed = 0, uses_anonymous_args = 0
	.loc 2 800 5 view .LVU930
	.loc 2 801 5 view .LVU931
	.loc 2 798 40 is_stmt 0 view .LVU932
	push	{r4, r5, r6, r7, r8, r9, r10, lr}
.LCFI67:
	sub	sp, sp, #40
.LCFI68:
	.loc 2 798 40 view .LVU933
	mov	r4, r2
	ldr	r10, [sp, #72]
	.loc 2 801 17 view .LVU934
	mov	r5, r10
	.loc 2 798 40 view .LVU935
	mov	r7, r3
	.loc 2 801 17 view .LVU936
	ldrsb	r6, [r5], #4
.LVL340:
	.loc 2 803 5 is_stmt 1 view .LVU937
	str	r6, [sp]
	.loc 2 798 40 is_stmt 0 view .LVU938
	mov	r8, r0
	mov	r9, r1
	.loc 2 803 5 view .LVU939
	mov	r3, r5
.LVL341:
	.loc 2 803 5 view .LVU940
	mov	r2, r0
.LVL342:
	.loc 2 803 5 view .LVU941
	mov	r1, r4
.LVL343:
	.loc 2 803 5 view .LVU942
	add	r0, sp, #8
.LVL344:
	.loc 2 803 5 view .LVU943
	bl	uECC_vli_modSub
.LVL345:
	.loc 2 804 5 is_stmt 1 view .LVU944
	add	r1, sp, #8
	mov	r2, r10
	mov	r0, r1
	bl	uECC_vli_modSquare_fast
.LVL346:
	.loc 2 805 5 view .LVU945
	mov	r3, r10
	add	r2, sp, #8
	mov	r1, r8
	mov	r0, r8
	bl	uECC_vli_modMult_fast
.LVL347:
	.loc 2 806 5 view .LVU946
	mov	r3, r10
	add	r2, sp, #8
	mov	r1, r4
	mov	r0, r4
	bl	uECC_vli_modMult_fast
.LVL348:
	.loc 2 807 5 view .LVU947
	mov	r3, r5
	mov	r2, r9
	mov	r1, r7
	mov	r0, r7
	str	r6, [sp]
	bl	uECC_vli_modSub
.LVL349:
	.loc 2 808 5 view .LVU948
	mov	r2, r10
	mov	r1, r7
	add	r0, sp, #8
	bl	uECC_vli_modSquare_fast
.LVL350:
	.loc 2 810 5 view .LVU949
	add	r1, sp, #8
	mov	r3, r5
	mov	r2, r8
	mov	r0, r1
	str	r6, [sp]
	bl	uECC_vli_modSub
.LVL351:
	.loc 2 811 5 view .LVU950
	add	r1, sp, #8
	mov	r3, r5
	mov	r2, r4
	mov	r0, r1
	str	r6, [sp]
	bl	uECC_vli_modSub
.LVL352:
	.loc 2 812 5 view .LVU951
	mov	r3, r5
	mov	r2, r8
	mov	r1, r4
	mov	r0, r4
	str	r6, [sp]
	bl	uECC_vli_modSub
.LVL353:
	.loc 2 813 5 view .LVU952
	mov	r3, r10
	mov	r2, r4
	mov	r1, r9
	mov	r0, r9
	bl	uECC_vli_modMult_fast
.LVL354:
	.loc 2 814 5 view .LVU953
	mov	r3, r5
	add	r2, sp, #8
	mov	r1, r8
	mov	r0, r4
	str	r6, [sp]
	bl	uECC_vli_modSub
.LVL355:
	.loc 2 815 5 view .LVU954
	mov	r3, r10
	mov	r2, r4
	mov	r1, r7
	mov	r0, r7
	bl	uECC_vli_modMult_fast
.LVL356:
	.loc 2 816 5 view .LVU955
	mov	r3, r5
	mov	r2, r9
	mov	r1, r7
	mov	r0, r7
	str	r6, [sp]
	bl	uECC_vli_modSub
.LVL357:
	.loc 2 818 5 view .LVU956
	mov	r2, r6
	add	r1, sp, #8
	mov	r0, r4
	bl	uECC_vli_set
.LVL358:
	.loc 2 819 1 is_stmt 0 view .LVU957
	add	sp, sp, #40
.LCFI69:
	@ sp needed
	pop	{r4, r5, r6, r7, r8, r9, r10, pc}
	.loc 2 819 1 view .LVU958
.LFE50:
	.size	XYcZ_add, .-XYcZ_add
	.section	.text.XYcZ_addC,"ax",%progbits
	.align	1
	.syntax unified
	.thumb
	.thumb_func
	.fpu fpv4-sp-d16
	.type	XYcZ_addC, %function
XYcZ_addC:
.LVL359:
.LFB51:
	.loc 2 829 41 is_stmt 1 view -0
	@ args = 4, pretend = 0, frame = 96
	@ frame_needed = 0, uses_anonymous_args = 0
	.loc 2 831 5 view .LVU960
	.loc 2 832 5 view .LVU961
	.loc 2 833 5 view .LVU962
	.loc 2 834 5 view .LVU963
	.loc 2 829 41 is_stmt 0 view .LVU964
	push	{r4, r5, r6, r7, r8, r9, r10, lr}
.LCFI70:
	sub	sp, sp, #104
.LCFI71:
	.loc 2 829 41 view .LVU965
	mov	r6, r2
	ldr	r8, [sp, #136]
	.loc 2 834 17 view .LVU966
	mov	r4, r8
	.loc 2 829 41 view .LVU967
	mov	r9, r3
	.loc 2 834 17 view .LVU968
	ldrsb	r5, [r4], #4
.LVL360:
	.loc 2 836 5 is_stmt 1 view .LVU969
	str	r5, [sp]
	.loc 2 829 41 is_stmt 0 view .LVU970
	mov	r7, r0
	mov	r10, r1
	.loc 2 836 5 view .LVU971
	mov	r3, r4
.LVL361:
	.loc 2 836 5 view .LVU972
	mov	r2, r0
.LVL362:
	.loc 2 836 5 view .LVU973
	mov	r1, r6
.LVL363:
	.loc 2 836 5 view .LVU974
	add	r0, sp, #8
.LVL364:
	.loc 2 836 5 view .LVU975
	bl	uECC_vli_modSub
.LVL365:
	.loc 2 837 5 is_stmt 1 view .LVU976
	add	r1, sp, #8
	mov	r2, r8
	mov	r0, r1
	bl	uECC_vli_modSquare_fast
.LVL366:
	.loc 2 838 5 view .LVU977
	mov	r3, r8
	add	r2, sp, #8
	mov	r1, r7
	mov	r0, r7
	bl	uECC_vli_modMult_fast
.LVL367:
	.loc 2 839 5 view .LVU978
	mov	r3, r8
	add	r2, sp, #8
	mov	r1, r6
	mov	r0, r6
	bl	uECC_vli_modMult_fast
.LVL368:
	.loc 2 840 5 view .LVU979
	mov	r3, r4
	mov	r2, r10
	mov	r1, r9
	add	r0, sp, #8
	str	r5, [sp]
	bl	uECC_vli_modAdd
.LVL369:
	.loc 2 841 5 view .LVU980
	mov	r3, r4
	mov	r2, r10
	mov	r1, r9
	mov	r0, r9
	str	r5, [sp]
	bl	uECC_vli_modSub
.LVL370:
	.loc 2 843 5 view .LVU981
	mov	r3, r4
	mov	r2, r7
	mov	r1, r6
	add	r0, sp, #40
	str	r5, [sp]
	bl	uECC_vli_modSub
.LVL371:
	.loc 2 844 5 view .LVU982
	mov	r3, r8
	add	r2, sp, #40
	mov	r1, r10
	mov	r0, r10
	bl	uECC_vli_modMult_fast
.LVL372:
	.loc 2 845 5 view .LVU983
	mov	r3, r4
	mov	r2, r6
	mov	r1, r7
	add	r0, sp, #40
	str	r5, [sp]
	bl	uECC_vli_modAdd
.LVL373:
	.loc 2 846 5 view .LVU984
	mov	r2, r8
	mov	r1, r9
	mov	r0, r6
	bl	uECC_vli_modSquare_fast
.LVL374:
	.loc 2 847 5 view .LVU985
	mov	r3, r4
	add	r2, sp, #40
	mov	r1, r6
	mov	r0, r6
	str	r5, [sp]
	bl	uECC_vli_modSub
.LVL375:
	.loc 2 849 5 view .LVU986
	mov	r3, r4
	mov	r2, r6
	mov	r1, r7
	add	r0, sp, #72
	str	r5, [sp]
	bl	uECC_vli_modSub
.LVL376:
	.loc 2 850 5 view .LVU987
	mov	r3, r8
	add	r2, sp, #72
	mov	r1, r9
	mov	r0, r9
	bl	uECC_vli_modMult_fast
.LVL377:
	.loc 2 851 5 view .LVU988
	mov	r3, r4
	mov	r2, r10
	mov	r1, r9
	mov	r0, r9
	str	r5, [sp]
	bl	uECC_vli_modSub
.LVL378:
	.loc 2 853 5 view .LVU989
	mov	r2, r8
	add	r1, sp, #8
	add	r0, sp, #72
	bl	uECC_vli_modSquare_fast
.LVL379:
	.loc 2 854 5 view .LVU990
	add	r1, sp, #72
	mov	r3, r4
	add	r2, sp, #40
	mov	r0, r1
	str	r5, [sp]
	bl	uECC_vli_modSub
.LVL380:
	.loc 2 855 5 view .LVU991
	mov	r3, r4
	mov	r2, r7
	add	r1, sp, #72
	add	r0, sp, #40
	str	r5, [sp]
	bl	uECC_vli_modSub
.LVL381:
	.loc 2 856 5 view .LVU992
	add	r1, sp, #40
	mov	r3, r8
	add	r2, sp, #8
	mov	r0, r1
	bl	uECC_vli_modMult_fast
.LVL382:
	.loc 2 857 5 view .LVU993
	mov	r3, r4
	mov	r2, r10
	add	r1, sp, #40
	mov	r0, r10
	str	r5, [sp]
	bl	uECC_vli_modSub
.LVL383:
	.loc 2 859 5 view .LVU994
	mov	r2, r5
	add	r1, sp, #72
	mov	r0, r7
	bl	uECC_vli_set
.LVL384:
	.loc 2 860 1 is_stmt 0 view .LVU995
	add	sp, sp, #104
.LCFI72:
	@ sp needed
	pop	{r4, r5, r6, r7, r8, r9, r10, pc}
	.loc 2 860 1 view .LVU996
.LFE51:
	.size	XYcZ_addC, .-XYcZ_addC
	.section	.text.regularize_k,"ax",%progbits
	.align	1
	.syntax unified
	.thumb
	.thumb_func
	.fpu fpv4-sp-d16
	.type	regularize_k, %function
regularize_k:
.LVL385:
.LFB53:
	.loc 2 911 51 is_stmt 1 view -0
	@ args = 0, pretend = 0, frame = 8
	@ frame_needed = 0, uses_anonymous_args = 0
	.loc 2 912 5 view .LVU998
	.loc 2 911 51 is_stmt 0 view .LVU999
	push	{r0, r1, r2, r4, r5, r6, r7, lr}
.LCFI73:
	.loc 2 912 31 view .LVU1000
	ldrsh	r7, [r3, #2]
	.loc 2 911 51 view .LVU1001
	mov	r4, r3
	.loc 2 912 31 view .LVU1002
	adds	r3, r7, #31
.LVL386:
	.loc 2 911 51 view .LVU1003
	mov	r5, r1
	.loc 2 912 31 view .LVU1004
	it	mi
	addmi	r3, r7, #62
	.loc 2 912 17 view .LVU1005
	sbfx	r3, r3, #5, #8
.LVL387:
	.loc 2 913 5 is_stmt 1 view .LVU1006
	.loc 2 914 5 view .LVU1007
	.loc 2 914 25 is_stmt 0 view .LVU1008
	mov	r1, r0
.LVL388:
	.loc 2 911 51 view .LVU1009
	mov	r6, r2
	.loc 2 914 25 view .LVU1010
	mov	r0, r5
.LVL389:
	.loc 2 914 50 view .LVU1011
	add	r2, r4, #36
.LVL390:
	.loc 2 914 25 view .LVU1012
	strd	r2, r3, [sp]
	bl	uECC_vli_add
.LVL391:
	.loc 2 914 68 view .LVU1013
	ldrd	r2, r3, [sp]
	cbnz	r0, .L121
	.loc 2 914 68 discriminator 2 view .LVU1014
	cmp	r7, r3, lsl #5
	bge	.L122
	.loc 2 916 10 view .LVU1015
	mov	r1, r7
	mov	r0, r5
	bl	uECC_vli_testBit
.LVL392:
	ldrd	r2, r3, [sp]
	.loc 2 915 70 view .LVU1016
	subs	r4, r0, #0
.LVL393:
	.loc 2 915 70 view .LVU1017
	it	ne
	movne	r4, #1
.L120:
.LVL394:
	.loc 2 917 5 is_stmt 1 discriminator 5 view .LVU1018
	mov	r1, r5
	mov	r0, r6
	bl	uECC_vli_add
.LVL395:
	.loc 2 918 5 discriminator 5 view .LVU1019
	.loc 2 919 1 is_stmt 0 discriminator 5 view .LVU1020
	mov	r0, r4
	add	sp, sp, #12
.LCFI74:
.LVL396:
	.loc 2 919 1 discriminator 5 view .LVU1021
	@ sp needed
	pop	{r4, r5, r6, r7, pc}
.LVL397:
.L121:
.LCFI75:
	.loc 2 914 68 view .LVU1022
	movs	r4, #1
.LVL398:
	.loc 2 914 68 view .LVU1023
	b	.L120
.LVL399:
.L122:
	.loc 2 914 68 view .LVU1024
	mov	r4, r0
.LVL400:
	.loc 2 914 68 view .LVU1025
	b	.L120
.LFE53:
	.size	regularize_k, .-regularize_k
	.section	.text.uECC_vli_nativeToBytes,"ax",%progbits
	.align	1
	.syntax unified
	.thumb
	.thumb_func
	.fpu fpv4-sp-d16
	.type	uECC_vli_nativeToBytes, %function
uECC_vli_nativeToBytes:
.LVL401:
.LFB55:
	.loc 2 962 69 is_stmt 1 view -0
	@ args = 0, pretend = 0, frame = 0
	@ frame_needed = 0, uses_anonymous_args = 0
	.loc 2 963 5 view .LVU1027
	.loc 2 964 5 view .LVU1028
	.loc 2 962 69 is_stmt 0 view .LVU1029
	push	{r4, r5, r6, r7, lr}
.LCFI76:
	.loc 2 964 5 view .LVU1030
	movs	r5, #0
.LBB45:
	.loc 2 965 32 view .LVU1031
	subs	r7, r1, #1
.LVL402:
.L124:
	.loc 2 965 32 view .LVU1032
	sxtb	r4, r5
.LVL403:
	.loc 2 965 32 view .LVU1033
.LBE45:
	.loc 2 964 17 is_stmt 1 discriminator 1 view .LVU1034
	.loc 2 964 5 is_stmt 0 discriminator 1 view .LVU1035
	cmp	r4, r1
	add	r5, r5, #1
	blt	.L125
	.loc 2 968 1 view .LVU1036
	pop	{r4, r5, r6, r7, pc}
.LVL404:
.L125:
.LBB46:
	.loc 2 965 9 is_stmt 1 discriminator 3 view .LVU1037
	.loc 2 965 36 is_stmt 0 discriminator 3 view .LVU1038
	subs	r3, r7, r4
.LVL405:
	.loc 2 966 9 is_stmt 1 discriminator 3 view .LVU1039
	.loc 2 966 26 is_stmt 0 discriminator 3 view .LVU1040
	bic	r6, r3, #3
	.loc 2 966 58 discriminator 3 view .LVU1041
	and	r3, r3, #3
.LVL406:
	.loc 2 966 47 discriminator 3 view .LVU1042
	ldr	r6, [r2, r6]
	.loc 2 966 53 discriminator 3 view .LVU1043
	lsls	r3, r3, #3
	.loc 2 966 47 discriminator 3 view .LVU1044
	lsr	r3, r6, r3
	.loc 2 966 18 discriminator 3 view .LVU1045
	strb	r3, [r0, r4]
.LBE46:
	.loc 2 964 32 is_stmt 1 discriminator 3 view .LVU1046
.LVL407:
	.loc 2 964 32 is_stmt 0 discriminator 3 view .LVU1047
	b	.L124
.LFE55:
	.size	uECC_vli_nativeToBytes, .-uECC_vli_nativeToBytes
	.section	.text.uECC_vli_bytesToNative,"ax",%progbits
	.align	1
	.syntax unified
	.thumb
	.thumb_func
	.fpu fpv4-sp-d16
	.type	uECC_vli_bytesToNative, %function
uECC_vli_bytesToNative:
.LVL408:
.LFB56:
	.loc 2 972 57 is_stmt 1 view -0
	@ args = 0, pretend = 0, frame = 0
	@ frame_needed = 0, uses_anonymous_args = 0
	.loc 2 973 5 view .LVU1049
	.loc 2 974 5 view .LVU1050
	.loc 2 972 57 is_stmt 0 view .LVU1051
	push	{r3, r4, r5, r6, r7, lr}
.LCFI77:
	.loc 2 972 57 view .LVU1052
	mov	r6, r1
	.loc 2 974 63 view .LVU1053
	adds	r1, r2, #3
.LVL409:
	.loc 2 974 63 view .LVU1054
	it	mi
	addmi	r1, r2, #6
	.loc 2 974 5 view .LVU1055
	sbfx	r1, r1, #2, #8
	.loc 2 972 57 view .LVU1056
	mov	r4, r2
	.loc 2 974 5 view .LVU1057
	bl	uECC_vli_clear
.LVL410:
	.loc 2 975 5 is_stmt 1 view .LVU1058
	.loc 2 975 5 is_stmt 0 view .LVU1059
	movs	r5, #0
.LBB47:
	.loc 2 976 32 view .LVU1060
	subs	r7, r4, #1
.LVL411:
.L128:
	.loc 2 976 32 view .LVU1061
	sxtb	r2, r5
.LVL412:
	.loc 2 976 32 view .LVU1062
.LBE47:
	.loc 2 975 17 is_stmt 1 discriminator 1 view .LVU1063
	.loc 2 975 5 is_stmt 0 discriminator 1 view .LVU1064
	cmp	r2, r4
	add	r5, r5, #1
	blt	.L129
	.loc 2 980 1 view .LVU1065
	pop	{r3, r4, r5, r6, r7, pc}
.LVL413:
.L129:
.LBB48:
	.loc 2 976 9 is_stmt 1 discriminator 3 view .LVU1066
	.loc 2 976 36 is_stmt 0 discriminator 3 view .LVU1067
	subs	r3, r7, r2
.LVL414:
	.loc 2 977 9 is_stmt 1 discriminator 3 view .LVU1068
	.loc 2 977 36 is_stmt 0 discriminator 3 view .LVU1069
	bic	r1, r3, #3
	.loc 2 978 13 discriminator 3 view .LVU1070
	ldrb	r2, [r6, r2]	@ zero_extendqisi2
.LVL415:
	.loc 2 978 46 discriminator 3 view .LVU1071
	and	r3, r3, #3
.LVL416:
	.loc 2 978 41 discriminator 3 view .LVU1072
	lsls	r3, r3, #3
	.loc 2 978 35 discriminator 3 view .LVU1073
	lsl	r3, r2, r3
	.loc 2 977 36 discriminator 3 view .LVU1074
	ldr	r2, [r0, r1]
	orrs	r2, r2, r3
	str	r2, [r0, r1]
.LBE48:
	.loc 2 975 32 is_stmt 1 discriminator 3 view .LVU1075
.LVL417:
	.loc 2 975 32 is_stmt 0 discriminator 3 view .LVU1076
	b	.L128
.LFE56:
	.size	uECC_vli_bytesToNative, .-uECC_vli_bytesToNative
	.section	.text.uECC_generate_random_int,"ax",%progbits
	.align	1
	.syntax unified
	.thumb
	.thumb_func
	.fpu fpv4-sp-d16
	.type	uECC_generate_random_int, %function
uECC_generate_random_int:
.LVL418:
.LFB57:
	.loc 2 988 66 is_stmt 1 view -0
	@ args = 0, pretend = 0, frame = 0
	@ frame_needed = 0, uses_anonymous_args = 0
	.loc 2 989 5 view .LVU1078
	.loc 2 990 5 view .LVU1079
	.loc 2 991 5 view .LVU1080
	.loc 2 988 66 is_stmt 0 view .LVU1081
	push	{r3, r4, r5, r6, r7, r8, r9, r10, fp, lr}
.LCFI78:
	.loc 2 988 66 view .LVU1082
	mov	r7, r1
	mov	r6, r0
	.loc 2 991 27 view .LVU1083
	mov	r1, r2
.LVL419:
	.loc 2 991 27 view .LVU1084
	mov	r0, r7
.LVL420:
	.loc 2 988 66 view .LVU1085
	mov	r4, r2
	.loc 2 991 27 view .LVU1086
	bl	uECC_vli_numBits
.LVL421:
	.loc 2 993 5 is_stmt 1 view .LVU1087
	.loc 2 993 9 is_stmt 0 view .LVU1088
	ldr	r3, .L144
	.loc 2 993 8 view .LVU1089
	ldr	r2, [r3]
	mov	r8, r3
	cbz	r2, .L131
	.loc 2 998 58 view .LVU1090
	movs	r5, #4
	.loc 2 1001 87 view .LVU1091
	rsb	r0, r0, r4, lsl #5
.LVL422:
	.loc 2 998 58 view .LVU1092
	smulbb	fp, r4, r5
	.loc 2 1001 43 view .LVU1093
	sxth	r0, r0
	.loc 2 1001 31 view .LVU1094
	mla	r5, r5, r4, r6
	.loc 2 1001 39 view .LVU1095
	mov	r9, #-1
	.loc 2 1001 31 view .LVU1096
	subs	r5, r5, #4
	.loc 2 1001 39 view .LVU1097
	lsr	r9, r9, r0
	mov	r10, #64
.L133:
.LVL423:
	.loc 2 998 9 is_stmt 1 view .LVU1098
	.loc 2 998 14 is_stmt 0 view .LVU1099
	ldr	r3, [r8]
	mov	r1, fp
	mov	r0, r6
	blx	r3
.LVL424:
	.loc 2 998 12 view .LVU1100
	cbz	r0, .L131
	.loc 2 1001 9 is_stmt 1 view .LVU1101
	.loc 2 1001 31 is_stmt 0 view .LVU1102
	ldr	r3, [r5]
	and	r3, r3, r9
	str	r3, [r5]
	.loc 2 1002 9 is_stmt 1 view .LVU1103
	.loc 2 1002 14 is_stmt 0 view .LVU1104
	mov	r1, r4
	mov	r0, r6
	bl	uECC_vli_isZero
.LVL425:
	.loc 2 1002 12 view .LVU1105
	cbz	r0, .L132
.L135:
	.loc 2 997 49 is_stmt 1 view .LVU1106
.LVL426:
	.loc 2 997 21 view .LVU1107
	.loc 2 997 5 is_stmt 0 view .LVU1108
	subs	r10, r10, #1
.LVL427:
	.loc 2 997 5 view .LVU1109
	bne	.L133
.LVL428:
.L131:
	.loc 2 994 16 view .LVU1110
	movs	r0, #0
	b	.L130
.LVL429:
.L132:
	.loc 2 1003 11 discriminator 1 view .LVU1111
	mov	r2, r4
	mov	r1, r6
	mov	r0, r7
	bl	uECC_vli_cmp
.LVL430:
	.loc 2 1002 49 discriminator 1 view .LVU1112
	cmp	r0, #1
	bne	.L135
.LVL431:
.L130:
	.loc 2 1008 1 view .LVU1113
	pop	{r3, r4, r5, r6, r7, r8, r9, r10, fp, pc}
.LVL432:
.L145:
	.loc 2 1008 1 view .LVU1114
	.align	2
.L144:
	.word	.LANCHOR5
.LFE57:
	.size	uECC_generate_random_int, .-uECC_generate_random_int
	.section	.text.bits2int,"ax",%progbits
	.align	1
	.syntax unified
	.thumb
	.thumb_func
	.fpu fpv4-sp-d16
	.type	bits2int, %function
bits2int:
.LVL433:
.LFB65:
	.loc 2 1203 40 is_stmt 1 view -0
	@ args = 0, pretend = 0, frame = 0
	@ frame_needed = 0, uses_anonymous_args = 0
	.loc 2 1204 5 view .LVU1116
	.loc 2 1203 40 is_stmt 0 view .LVU1117
	push	{r4, r5, r6, r7, r8, r9, r10, lr}
.LCFI79:
	.loc 2 1203 40 view .LVU1118
	mov	r8, r3
	.loc 2 1204 28 view .LVU1119
	ldrsh	r3, [r3, #2]
.LVL434:
	.loc 2 1205 5 is_stmt 1 view .LVU1120
	.loc 2 1203 40 is_stmt 0 view .LVU1121
	mov	r9, r1
	.loc 2 1205 28 view .LVU1122
	adds	r1, r3, #31
.LVL435:
	.loc 2 1205 28 view .LVU1123
	it	mi
	addmi	r1, r3, #62
	.loc 2 1204 28 view .LVU1124
	adds	r5, r3, #7
	it	mi
	addmi	r5, r3, #14
	asrs	r4, r5, #3
	.loc 2 1205 28 view .LVU1125
	asrs	r6, r1, #5
.LVL436:
	.loc 2 1206 5 is_stmt 1 view .LVU1126
	.loc 2 1207 5 view .LVU1127
	.loc 2 1208 5 view .LVU1128
	.loc 2 1210 5 view .LVU1129
	cmp	r4, r2
	.loc 2 1214 5 is_stmt 0 view .LVU1130
	sxtb	r5, r6
	it	cs
	movcs	r4, r2
.LVL437:
	.loc 2 1214 5 is_stmt 1 view .LVU1131
	mov	r1, r5
	.loc 2 1203 40 is_stmt 0 view .LVU1132
	mov	r7, r0
	.loc 2 1214 5 view .LVU1133
	bl	uECC_vli_clear
.LVL438:
	.loc 2 1218 5 is_stmt 1 view .LVU1134
	mov	r2, r4
	mov	r1, r9
	bl	uECC_vli_bytesToNative
.LVL439:
	.loc 2 1220 5 view .LVU1135
	.loc 2 1220 26 is_stmt 0 view .LVU1136
	ldrsh	r3, [r8, #2]
	.loc 2 1220 8 view .LVU1137
	cmp	r3, r4, lsl #3
	.loc 2 1220 19 view .LVU1138
	lsl	r2, r4, #3
	.loc 2 1220 8 view .LVU1139
	bcs	.L146
	.loc 2 1223 5 is_stmt 1 view .LVU1140
	.loc 2 1223 27 is_stmt 0 view .LVU1141
	subs	r2, r2, r3
.LVL440:
	.loc 2 1224 5 is_stmt 1 view .LVU1142
	.loc 2 1225 5 view .LVU1143
	.loc 2 1226 5 view .LVU1144
	.loc 2 1225 9 is_stmt 0 view .LVU1145
	add	r1, r0, r6, lsl #2
.LVL441:
	.loc 2 1224 11 view .LVU1146
	movs	r0, #0
.LVL442:
.LBB49:
	.loc 2 1229 41 view .LVU1147
	rsb	r6, r2, #32
.LVL443:
.L151:
	.loc 2 1229 41 view .LVU1148
.LBE49:
	.loc 2 1226 11 is_stmt 1 view .LVU1149
	.loc 2 1226 11 is_stmt 0 view .LVU1150
	cmp	r7, r1
	bcc	.L152
	.loc 2 1233 5 is_stmt 1 view .LVU1151
	.loc 2 1233 34 is_stmt 0 view .LVU1152
	add	r8, r8, #36
.LVL444:
	.loc 2 1233 9 view .LVU1153
	mov	r2, r5
.LVL445:
	.loc 2 1233 9 view .LVU1154
	mov	r1, r7
.LVL446:
	.loc 2 1233 9 view .LVU1155
	mov	r0, r8
.LVL447:
	.loc 2 1233 9 view .LVU1156
	bl	uECC_vli_cmp_unsafe
.LVL448:
	.loc 2 1233 8 view .LVU1157
	cmp	r0, #1
	beq	.L146
.LVL449:
	.loc 2 1234 9 is_stmt 1 view .LVU1158
	mov	r3, r5
	mov	r2, r8
	mov	r0, r7
	.loc 2 1236 1 is_stmt 0 view .LVU1159
	pop	{r4, r5, r6, r7, r8, r9, r10, lr}
.LCFI80:
.LVL450:
	.loc 2 1234 9 view .LVU1160
	b	uECC_vli_sub
.LVL451:
.L152:
.LCFI81:
.LBB50:
	.loc 2 1227 9 is_stmt 1 view .LVU1161
	.loc 2 1227 21 is_stmt 0 view .LVU1162
	ldr	r4, [r1, #-4]!
.LVL452:
	.loc 2 1228 9 is_stmt 1 view .LVU1163
	.loc 2 1228 22 is_stmt 0 view .LVU1164
	lsr	r3, r4, r2
	.loc 2 1228 32 view .LVU1165
	orrs	r3, r3, r0
	.loc 2 1228 14 view .LVU1166
	str	r3, [r1]
	.loc 2 1229 9 is_stmt 1 view .LVU1167
	.loc 2 1229 15 is_stmt 0 view .LVU1168
	lsl	r0, r4, r6
.LVL453:
	.loc 2 1229 15 view .LVU1169
	b	.L151
.LVL454:
.L146:
	.loc 2 1229 15 view .LVU1170
.LBE50:
	.loc 2 1236 1 view .LVU1171
	pop	{r4, r5, r6, r7, r8, r9, r10, pc}
	.loc 2 1236 1 view .LVU1172
.LFE65:
	.size	bits2int, .-bits2int
	.section	.text.HMAC_init,"ax",%progbits
	.align	1
	.syntax unified
	.thumb
	.thumb_func
	.fpu fpv4-sp-d16
	.type	HMAC_init, %function
HMAC_init:
.LVL455:
.LFB68:
	.loc 2 1334 79 is_stmt 1 view -0
	@ args = 0, pretend = 0, frame = 0
	@ frame_needed = 0, uses_anonymous_args = 0
	.loc 2 1335 5 view .LVU1174
	.loc 2 1334 79 is_stmt 0 view .LVU1175
	push	{r4, r5, r6, lr}
.LCFI82:
	.loc 2 1335 14 view .LVU1176
	ldrd	r3, r5, [r0, #16]
	.loc 2 1334 79 view .LVU1177
	mov	r4, r0
	.loc 2 1335 14 view .LVU1178
	add	r5, r5, r3, lsl #1
.LVL456:
	.loc 2 1336 5 is_stmt 1 view .LVU1179
	.loc 2 1337 5 view .LVU1180
	.loc 2 1337 12 is_stmt 0 view .LVU1181
	movs	r3, #0
.LVL457:
.L158:
	.loc 2 1337 17 is_stmt 1 discriminator 1 view .LVU1182
	.loc 2 1337 5 is_stmt 0 discriminator 1 view .LVU1183
	ldr	r2, [r4, #16]
	cmp	r2, r3
	bhi	.L159
	.loc 2 1340 16 view .LVU1184
	movs	r1, #54
.LVL458:
.L160:
	.loc 2 1339 12 is_stmt 1 discriminator 1 view .LVU1185
	.loc 2 1339 5 is_stmt 0 discriminator 1 view .LVU1186
	ldr	r2, [r4, #12]
	cmp	r2, r3
	bhi	.L161
	.loc 2 1342 5 is_stmt 1 view .LVU1187
	ldr	r3, [r4]
.LVL459:
	.loc 2 1342 5 is_stmt 0 view .LVU1188
	mov	r0, r4
.LVL460:
	.loc 2 1342 5 view .LVU1189
	blx	r3
.LVL461:
	.loc 2 1343 5 is_stmt 1 view .LVU1190
	ldr	r3, [r4, #4]
	ldr	r2, [r4, #12]
	mov	r1, r5
	mov	r0, r4
	.loc 2 1344 1 is_stmt 0 view .LVU1191
	pop	{r4, r5, r6, lr}
.LCFI83:
.LVL462:
	.loc 2 1343 5 view .LVU1192
	bx	r3	@ indirect register sibling call
.LVL463:
.L159:
.LCFI84:
	.loc 2 1338 9 is_stmt 1 discriminator 3 view .LVU1193
	.loc 2 1338 16 is_stmt 0 discriminator 3 view .LVU1194
	ldrb	r2, [r1, r3]	@ zero_extendqisi2
	eor	r2, r2, #54
	strb	r2, [r5, r3]
	.loc 2 1337 48 is_stmt 1 discriminator 3 view .LVU1195
	adds	r3, r3, #1
.LVL464:
	.loc 2 1337 48 is_stmt 0 discriminator 3 view .LVU1196
	b	.L158
.LVL465:
.L161:
	.loc 2 1340 9 is_stmt 1 discriminator 2 view .LVU1197
	.loc 2 1340 16 is_stmt 0 discriminator 2 view .LVU1198
	strb	r1, [r5, r3]
	.loc 2 1339 42 is_stmt 1 discriminator 2 view .LVU1199
	adds	r3, r3, #1
.LVL466:
	.loc 2 1339 42 is_stmt 0 discriminator 2 view .LVU1200
	b	.L160
.LFE68:
	.size	HMAC_init, .-HMAC_init
	.section	.text.HMAC_update,"ax",%progbits
	.align	1
	.syntax unified
	.thumb
	.thumb_func
	.fpu fpv4-sp-d16
	.type	HMAC_update, %function
HMAC_update:
.LVL467:
.LFB69:
	.loc 2 1348 48 is_stmt 1 view -0
	@ args = 0, pretend = 0, frame = 0
	@ frame_needed = 0, uses_anonymous_args = 0
	@ link register save eliminated.
	.loc 2 1349 5 view .LVU1202
	ldr	r3, [r0, #4]
	bx	r3	@ indirect register sibling call
.LVL468:
	.loc 2 1349 5 is_stmt 0 view .LVU1203
.LFE69:
	.size	HMAC_update, .-HMAC_update
	.section	.text.HMAC_finish,"ax",%progbits
	.align	1
	.syntax unified
	.thumb
	.thumb_func
	.fpu fpv4-sp-d16
	.type	HMAC_finish, %function
HMAC_finish:
.LVL469:
.LFB70:
	.loc 2 1354 42 is_stmt 1 view -0
	@ args = 0, pretend = 0, frame = 0
	@ frame_needed = 0, uses_anonymous_args = 0
	.loc 2 1355 5 view .LVU1205
	.loc 2 1354 42 is_stmt 0 view .LVU1206
	push	{r4, r5, r6, lr}
.LCFI85:
	.loc 2 1355 14 view .LVU1207
	ldrd	r3, r6, [r0, #16]
	.loc 2 1354 42 view .LVU1208
	mov	r4, r0
	.loc 2 1355 14 view .LVU1209
	add	r6, r6, r3, lsl #1
.LVL470:
	.loc 2 1356 5 is_stmt 1 view .LVU1210
	.loc 2 1357 5 view .LVU1211
	.loc 2 1354 42 is_stmt 0 view .LVU1212
	mov	r5, r2
	.loc 2 1357 12 view .LVU1213
	movs	r3, #0
.LVL471:
.L164:
	.loc 2 1357 17 is_stmt 1 discriminator 1 view .LVU1214
	.loc 2 1357 5 is_stmt 0 discriminator 1 view .LVU1215
	ldr	r2, [r4, #16]
	cmp	r2, r3
	bhi	.L165
	.loc 2 1360 16 view .LVU1216
	movs	r1, #92
.LVL472:
.L166:
	.loc 2 1359 12 is_stmt 1 discriminator 1 view .LVU1217
	.loc 2 1359 5 is_stmt 0 discriminator 1 view .LVU1218
	ldr	r2, [r4, #12]
	cmp	r2, r3
	bhi	.L167
	.loc 2 1362 5 is_stmt 1 view .LVU1219
	mov	r1, r5
	ldr	r3, [r4, #8]
.LVL473:
	.loc 2 1362 5 is_stmt 0 view .LVU1220
	mov	r0, r4
.LVL474:
	.loc 2 1362 5 view .LVU1221
	blx	r3
.LVL475:
	.loc 2 1364 5 is_stmt 1 view .LVU1222
	ldr	r3, [r4]
	mov	r0, r4
	blx	r3
.LVL476:
	.loc 2 1365 5 view .LVU1223
	ldr	r3, [r4, #4]
	ldr	r2, [r4, #12]
	mov	r1, r6
	mov	r0, r4
	blx	r3
.LVL477:
	.loc 2 1366 5 view .LVU1224
	ldr	r3, [r4, #4]
	ldr	r2, [r4, #16]
	mov	r1, r5
	mov	r0, r4
	blx	r3
.LVL478:
	.loc 2 1367 5 view .LVU1225
	ldr	r3, [r4, #8]
	mov	r1, r5
	mov	r0, r4
	.loc 2 1368 1 is_stmt 0 view .LVU1226
	pop	{r4, r5, r6, lr}
.LCFI86:
.LVL479:
	.loc 2 1367 5 view .LVU1227
	bx	r3	@ indirect register sibling call
.LVL480:
.L165:
.LCFI87:
	.loc 2 1358 9 is_stmt 1 discriminator 3 view .LVU1228
	.loc 2 1358 16 is_stmt 0 discriminator 3 view .LVU1229
	ldrb	r2, [r1, r3]	@ zero_extendqisi2
	eor	r2, r2, #92
	strb	r2, [r6, r3]
	.loc 2 1357 48 is_stmt 1 discriminator 3 view .LVU1230
	adds	r3, r3, #1
.LVL481:
	.loc 2 1357 48 is_stmt 0 discriminator 3 view .LVU1231
	b	.L164
.LVL482:
.L167:
	.loc 2 1360 9 is_stmt 1 discriminator 2 view .LVU1232
	.loc 2 1360 16 is_stmt 0 discriminator 2 view .LVU1233
	strb	r1, [r6, r3]
	.loc 2 1359 42 is_stmt 1 discriminator 2 view .LVU1234
	adds	r3, r3, #1
.LVL483:
	.loc 2 1359 42 is_stmt 0 discriminator 2 view .LVU1235
	b	.L166
.LFE70:
	.size	HMAC_finish, .-HMAC_finish
	.section	.text.update_V,"ax",%progbits
	.align	1
	.syntax unified
	.thumb
	.thumb_func
	.fpu fpv4-sp-d16
	.type	update_V, %function
update_V:
.LVL484:
.LFB71:
	.loc 2 1371 84 is_stmt 1 view -0
	@ args = 0, pretend = 0, frame = 0
	@ frame_needed = 0, uses_anonymous_args = 0
	.loc 2 1372 5 view .LVU1237
	.loc 2 1371 84 is_stmt 0 view .LVU1238
	push	{r4, r5, r6, lr}
.LCFI88:
	.loc 2 1371 84 view .LVU1239
	mov	r4, r0
	mov	r5, r2
	mov	r6, r1
	.loc 2 1372 5 view .LVU1240
	bl	HMAC_init
.LVL485:
	.loc 2 1373 5 is_stmt 1 view .LVU1241
	ldr	r2, [r4, #16]
	mov	r1, r5
	mov	r0, r4
	bl	HMAC_update
.LVL486:
	.loc 2 1374 5 view .LVU1242
	mov	r2, r5
	mov	r1, r6
	mov	r0, r4
	.loc 2 1375 1 is_stmt 0 view .LVU1243
	pop	{r4, r5, r6, lr}
.LCFI89:
.LVL487:
	.loc 2 1374 5 view .LVU1244
	b	HMAC_finish
.LVL488:
	.loc 2 1374 5 view .LVU1245
.LFE71:
	.size	update_V, .-update_V
	.section	.text.default_RNG,"ax",%progbits
	.align	1
	.syntax unified
	.thumb
	.thumb_func
	.fpu fpv4-sp-d16
	.type	default_RNG, %function
default_RNG:
.LVL489:
.LFB0:
	.file 4 "/home/matteo/Desktop/Reti di Sensori Wireless per IOT/Progetto/nrf5_SDK_for_Mesh_v4.0.0_src/external/micro-ecc/platform-specific.inc"
	.loc 4 69 54 is_stmt 1 view -0
	@ args = 0, pretend = 0, frame = 0
	@ frame_needed = 0, uses_anonymous_args = 0
	.loc 4 70 5 view .LVU1247
	.loc 4 69 54 is_stmt 0 view .LVU1248
	push	{r3, lr}
.LCFI90:
	.loc 4 70 5 view .LVU1249
	uxth	r1, r1
.LVL490:
	.loc 4 70 5 view .LVU1250
	bl	rand_hw_rng_get
.LVL491:
	.loc 4 71 5 is_stmt 1 view .LVU1251
	.loc 4 72 1 is_stmt 0 view .LVU1252
	movs	r0, #1
	pop	{r3, pc}
.LFE0:
	.size	default_RNG, .-default_RNG
	.section	.text.vli_modInv_update,"ax",%progbits
	.align	1
	.syntax unified
	.thumb
	.thumb_func
	.fpu fpv4-sp-d16
	.type	vli_modInv_update, %function
vli_modInv_update:
.LVL492:
.LFB24:
	.loc 2 684 54 is_stmt 1 view -0
	@ args = 0, pretend = 0, frame = 0
	@ frame_needed = 0, uses_anonymous_args = 0
	.loc 2 686 10 is_stmt 0 view .LVU1254
	ldr	r3, [r0]
	.loc 2 684 54 view .LVU1255
	push	{r4, r5, r6, lr}
.LCFI91:
	.loc 2 686 8 view .LVU1256
	ands	r6, r3, #1
	.loc 2 684 54 view .LVU1257
	mov	r5, r0
	.loc 2 685 5 is_stmt 1 view .LVU1258
.LVL493:
	.loc 2 686 5 view .LVU1259
	.loc 2 684 54 is_stmt 0 view .LVU1260
	mov	r4, r2
	.loc 2 686 8 view .LVU1261
	beq	.L171
	.loc 2 687 9 is_stmt 1 view .LVU1262
	.loc 2 687 17 is_stmt 0 view .LVU1263
	mov	r3, r2
	mov	r2, r1
.LVL494:
	.loc 2 687 17 view .LVU1264
	mov	r1, r0
.LVL495:
	.loc 2 687 17 view .LVU1265
	bl	uECC_vli_add
.LVL496:
	.loc 2 687 17 view .LVU1266
	mov	r6, r0
.LVL497:
.L171:
	.loc 2 689 5 is_stmt 1 view .LVU1267
	mov	r1, r4
	mov	r0, r5
	bl	uECC_vli_rshift1
.LVL498:
	.loc 2 690 5 view .LVU1268
	.loc 2 690 8 is_stmt 0 view .LVU1269
	cbz	r6, .L170
.LVL499:
.LBB53:
.LBI53:
	.loc 2 682 13 is_stmt 1 view .LVU1270
.LBB54:
	.loc 2 691 9 view .LVU1271
	.loc 2 691 27 is_stmt 0 view .LVU1272
	add	r2, r4, #1073741824
	subs	r2, r2, #1
	ldr	r3, [r5, r2, lsl #2]
	orr	r3, r3, #-2147483648
	str	r3, [r5, r2, lsl #2]
.LVL500:
.L170:
	.loc 2 691 27 view .LVU1273
.LBE54:
.LBE53:
	.loc 2 693 1 view .LVU1274
	pop	{r4, r5, r6, pc}
	.loc 2 693 1 view .LVU1275
.LFE24:
	.size	vli_modInv_update, .-vli_modInv_update
	.section	.text.uECC_vli_modInv,"ax",%progbits
	.align	1
	.syntax unified
	.thumb
	.thumb_func
	.fpu fpv4-sp-d16
	.type	uECC_vli_modInv, %function
uECC_vli_modInv:
.LVL501:
.LFB25:
	.loc 2 700 58 is_stmt 1 view -0
	@ args = 0, pretend = 0, frame = 128
	@ frame_needed = 0, uses_anonymous_args = 0
	.loc 2 701 5 view .LVU1277
	.loc 2 702 5 view .LVU1278
	.loc 2 704 5 view .LVU1279
	.loc 2 700 58 is_stmt 0 view .LVU1280
	push	{r4, r5, r6, r7, lr}
.LCFI92:
	mov	r7, r1
	sub	sp, sp, #132
.LCFI93:
	.loc 2 700 58 view .LVU1281
	mov	r6, r0
	.loc 2 704 9 view .LVU1282
	mov	r1, r3
.LVL502:
	.loc 2 704 9 view .LVU1283
	mov	r0, r7
.LVL503:
	.loc 2 700 58 view .LVU1284
	mov	r5, r2
	mov	r4, r3
	.loc 2 704 9 view .LVU1285
	bl	uECC_vli_isZero
.LVL504:
	.loc 2 704 8 view .LVU1286
	cbz	r0, .L180
	.loc 2 705 9 is_stmt 1 view .LVU1287
	mov	r0, r6
	bl	uECC_vli_clear
.LVL505:
	.loc 2 706 9 view .LVU1288
.L179:
	.loc 2 740 1 is_stmt 0 view .LVU1289
	add	sp, sp, #132
.LCFI94:
	@ sp needed
	pop	{r4, r5, r6, r7, pc}
.LVL506:
.L180:
.LCFI95:
.LBB57:
.LBI57:
	.loc 2 697 19 is_stmt 1 view .LVU1290
.LBB58:
	.loc 2 709 5 view .LVU1291
	mov	r2, r4
	mov	r1, r7
	mov	r0, sp
	bl	uECC_vli_set
.LVL507:
	.loc 2 710 5 view .LVU1292
	mov	r1, r5
	add	r0, sp, #32
	bl	uECC_vli_set
.LVL508:
	.loc 2 711 5 view .LVU1293
	add	r0, sp, #64
	mov	r1, r4
	bl	uECC_vli_clear
.LVL509:
	.loc 2 712 5 view .LVU1294
	.loc 2 712 10 is_stmt 0 view .LVU1295
	movs	r3, #1
	.loc 2 713 5 view .LVU1296
	add	r0, sp, #96
	.loc 2 712 10 view .LVU1297
	str	r3, [sp, #64]
	.loc 2 713 5 is_stmt 1 view .LVU1298
	bl	uECC_vli_clear
.LVL510:
	.loc 2 714 5 view .LVU1299
.L182:
	.loc 2 714 11 view .LVU1300
	.loc 2 714 25 is_stmt 0 view .LVU1301
	mov	r2, r4
	add	r1, sp, #32
	mov	r0, sp
	bl	uECC_vli_cmp_unsafe
.LVL511:
	.loc 2 714 11 view .LVU1302
	cbnz	r0, .L189
	.loc 2 739 5 is_stmt 1 view .LVU1303
	mov	r2, r4
	add	r1, sp, #64
	mov	r0, r6
.LVL512:
	.loc 2 739 5 is_stmt 0 view .LVU1304
	bl	uECC_vli_set
.LVL513:
	.loc 2 739 5 view .LVU1305
	b	.L179
.LVL514:
.L189:
	.loc 2 715 9 is_stmt 1 view .LVU1306
	.loc 2 715 12 is_stmt 0 view .LVU1307
	ldr	r3, [sp]
	lsls	r2, r3, #31
	bmi	.L183
	.loc 2 716 13 is_stmt 1 view .LVU1308
	mov	r1, r4
	mov	r0, sp
.LVL515:
	.loc 2 716 13 is_stmt 0 view .LVU1309
	bl	uECC_vli_rshift1
.LVL516:
	.loc 2 717 13 is_stmt 1 view .LVU1310
.L192:
	.loc 2 728 13 view .LVU1311
	mov	r2, r4
	mov	r1, r5
	add	r0, sp, #64
.LVL517:
.L191:
	.loc 2 736 13 is_stmt 0 view .LVU1312
	bl	vli_modInv_update
.LVL518:
	.loc 2 736 13 view .LVU1313
	b	.L182
.LVL519:
.L183:
	.loc 2 718 16 is_stmt 1 view .LVU1314
	.loc 2 718 19 is_stmt 0 view .LVU1315
	ldr	r3, [sp, #32]
	lsls	r3, r3, #31
	bmi	.L185
	.loc 2 719 13 is_stmt 1 view .LVU1316
	mov	r1, r4
	add	r0, sp, #32
.LVL520:
	.loc 2 719 13 is_stmt 0 view .LVU1317
	bl	uECC_vli_rshift1
.LVL521:
	.loc 2 720 13 is_stmt 1 view .LVU1318
.L190:
	.loc 2 736 13 view .LVU1319
	mov	r2, r4
	mov	r1, r5
	add	r0, sp, #96
	b	.L191
.LVL522:
.L185:
	.loc 2 721 16 view .LVU1320
	.loc 2 721 19 is_stmt 0 view .LVU1321
	cmp	r0, #0
	.loc 2 722 13 view .LVU1322
	mov	r3, r4
	.loc 2 721 19 view .LVU1323
	ble	.L186
	.loc 2 722 13 is_stmt 1 view .LVU1324
	add	r2, sp, #32
	mov	r1, sp
	mov	r0, sp
.LVL523:
	.loc 2 722 13 is_stmt 0 view .LVU1325
	bl	uECC_vli_sub
.LVL524:
	.loc 2 723 13 is_stmt 1 view .LVU1326
	mov	r1, r4
	mov	r0, sp
	bl	uECC_vli_rshift1
.LVL525:
	.loc 2 724 13 view .LVU1327
	.loc 2 724 17 is_stmt 0 view .LVU1328
	mov	r2, r4
	add	r1, sp, #96
	add	r0, sp, #64
	bl	uECC_vli_cmp_unsafe
.LVL526:
	.loc 2 724 16 view .LVU1329
	cmp	r0, #0
	bge	.L187
	.loc 2 725 17 is_stmt 1 view .LVU1330
	add	r1, sp, #64
	mov	r3, r4
	mov	r2, r5
	mov	r0, r1
	bl	uECC_vli_add
.LVL527:
.L187:
	.loc 2 727 13 view .LVU1331
	add	r1, sp, #64
	mov	r3, r4
	add	r2, sp, #96
	mov	r0, r1
	bl	uECC_vli_sub
.LVL528:
	b	.L192
.LVL529:
.L186:
	.loc 2 730 13 view .LVU1332
	add	r1, sp, #32
	mov	r2, sp
	mov	r0, r1
.LVL530:
	.loc 2 730 13 is_stmt 0 view .LVU1333
	bl	uECC_vli_sub
.LVL531:
	.loc 2 731 13 is_stmt 1 view .LVU1334
	mov	r1, r4
	add	r0, sp, #32
	bl	uECC_vli_rshift1
.LVL532:
	.loc 2 732 13 view .LVU1335
	.loc 2 732 17 is_stmt 0 view .LVU1336
	mov	r2, r4
	add	r1, sp, #64
	add	r0, sp, #96
	bl	uECC_vli_cmp_unsafe
.LVL533:
	.loc 2 732 16 view .LVU1337
	cmp	r0, #0
	bge	.L188
	.loc 2 733 17 is_stmt 1 view .LVU1338
	add	r1, sp, #96
	mov	r3, r4
	mov	r2, r5
	mov	r0, r1
	bl	uECC_vli_add
.LVL534:
.L188:
	.loc 2 735 13 view .LVU1339
	add	r1, sp, #96
	mov	r3, r4
	add	r2, sp, #64
	mov	r0, r1
	bl	uECC_vli_sub
.LVL535:
	b	.L190
.LBE58:
.LBE57:
.LFE25:
	.size	uECC_vli_modInv, .-uECC_vli_modInv
	.section	.text.mod_sqrt_secp224r1,"ax",%progbits
	.align	1
	.syntax unified
	.thumb
	.thumb_func
	.fpu fpv4-sp-d16
	.type	mod_sqrt_secp224r1, %function
mod_sqrt_secp224r1:
.LVL536:
.LFB39:
	.loc 3 544 66 view -0
	@ args = 0, pretend = 0, frame = 232
	@ frame_needed = 0, uses_anonymous_args = 0
	.loc 3 545 5 view .LVU1341
	.loc 3 546 5 view .LVU1342
	.loc 3 547 5 view .LVU1343
	.loc 3 548 5 view .LVU1344
	.loc 3 549 5 view .LVU1345
	.loc 3 550 5 view .LVU1346
	.loc 3 551 5 view .LVU1347
	.loc 3 554 5 view .LVU1348
	.loc 3 544 66 is_stmt 0 view .LVU1349
	push	{r4, r5, r6, r7, r8, r9, r10, fp, lr}
.LCFI96:
	sub	sp, sp, #244
.LCFI97:
.LVL537:
	.loc 3 544 66 view .LVU1350
	mov	r6, r0
.LVL538:
.LBB65:
.LBI65:
	.loc 3 518 13 is_stmt 1 view .LVU1351
.LBB66:
	.loc 3 523 5 view .LVU1352
	.loc 3 524 5 view .LVU1353
	.loc 3 525 5 view .LVU1354
	.loc 3 526 5 view .LVU1355
	.loc 3 526 17 is_stmt 0 view .LVU1356
	movs	r2, #24
	movs	r1, #0
.LVL539:
	.loc 3 526 17 view .LVU1357
	add	r0, sp, #132
.LVL540:
	.loc 3 526 17 view .LVU1358
	bl	memset
.LVL541:
	movs	r4, #1
	.loc 3 529 5 view .LVU1359
	movs	r2, #7
	mov	r1, r6
	add	r0, sp, #100
	.loc 3 531 5 view .LVU1360
	movs	r5, #7
	.loc 3 526 17 view .LVU1361
	str	r4, [sp, #128]
	.loc 3 527 5 is_stmt 1 view .LVU1362
	.loc 3 529 5 view .LVU1363
	bl	uECC_vli_set
.LVL542:
	.loc 3 531 5 view .LVU1364
	ldr	r3, .L201
	str	r5, [sp]
	mov	fp, r5
.LBB67:
.LBB68:
	.loc 3 481 5 is_stmt 0 view .LVU1365
	mov	r8, r5
.LBE68:
.LBE67:
.LBB71:
.LBB72:
	.loc 3 501 5 view .LVU1366
	ldr	r5, .L201+4
.LBE72:
.LBE71:
	.loc 3 531 5 view .LVU1367
	mov	r2, r6
	mov	r1, r3
	add	r0, sp, #156
	bl	uECC_vli_modSub
.LVL543:
	.loc 3 532 5 is_stmt 1 view .LVU1368
	.loc 3 532 17 view .LVU1369
.LBB75:
.LBB73:
	.loc 3 504 5 is_stmt 0 view .LVU1370
	adds	r7, r5, #4
.LBE73:
.LBE75:
	.loc 3 524 17 view .LVU1371
	str	r4, [sp, #8]
.LVL544:
.L196:
	.loc 3 533 9 is_stmt 1 view .LVU1372
	ldrsh	r3, [sp, #8]
	str	r3, [sp, #12]
.LVL545:
.LBB76:
.LBI67:
	.loc 3 472 13 view .LVU1373
.LBB69:
	.loc 3 479 5 view .LVU1374
	.loc 3 481 5 view .LVU1375
	movs	r2, #7
	add	r1, sp, #100
.LVL546:
	.loc 3 481 5 is_stmt 0 view .LVU1376
	add	r0, sp, #16
.LVL547:
	.loc 3 482 5 view .LVU1377
	add	r4, sp, #44
.LVL548:
	.loc 3 481 5 view .LVU1378
	bl	uECC_vli_set
.LVL549:
	.loc 3 482 5 is_stmt 1 view .LVU1379
	.loc 3 483 5 is_stmt 0 view .LVU1380
	add	r10, sp, #72
.LVL550:
	.loc 3 482 5 view .LVU1381
	movs	r2, #7
	add	r1, sp, #128
.LVL551:
	.loc 3 482 5 view .LVU1382
	mov	r0, r4
.LVL552:
	.loc 3 482 5 view .LVU1383
	bl	uECC_vli_set
.LVL553:
	.loc 3 483 5 is_stmt 1 view .LVU1384
	movs	r2, #7
	add	r1, sp, #156
.LVL554:
	.loc 3 483 5 is_stmt 0 view .LVU1385
	mov	r0, r10
	bl	uECC_vli_set
.LVL555:
	.loc 3 484 5 is_stmt 1 view .LVU1386
	.loc 3 484 5 is_stmt 0 view .LVU1387
	mov	r9, #0
.LVL556:
.L194:
	.loc 3 484 17 is_stmt 1 view .LVU1388
	.loc 3 484 5 is_stmt 0 view .LVU1389
	ldr	r2, [sp, #12]
	add	r9, r9, #1
.LVL557:
	.loc 3 484 5 view .LVU1390
	sxth	r3, r9
	cmp	r3, r2
	ble	.L195
.LVL558:
	.loc 3 484 5 view .LVU1391
.LBE69:
.LBE76:
	.loc 3 534 9 is_stmt 1 view .LVU1392
.LBB77:
.LBI71:
	.loc 3 490 13 view .LVU1393
.LBB74:
	.loc 3 498 5 view .LVU1394
	.loc 3 499 5 view .LVU1395
	.loc 3 501 5 view .LVU1396
	mov	r3, r5
	add	r2, sp, #128
.LVL559:
	.loc 3 501 5 is_stmt 0 view .LVU1397
	mov	r1, r4
	add	r0, sp, #184
	bl	uECC_vli_modMult_fast
.LVL560:
	.loc 3 502 5 is_stmt 1 view .LVU1398
	add	r1, sp, #184
	mov	r0, r1
	mov	r3, r5
	mov	r2, r6
	bl	uECC_vli_modMult_fast
.LVL561:
	.loc 3 504 5 view .LVU1399
	add	r2, sp, #184
	.loc 3 505 5 is_stmt 0 view .LVU1400
	add	r9, sp, #212
	.loc 3 504 5 view .LVU1401
	mov	r0, r2
	ldr	r1, .L201
	str	r8, [sp]
	mov	r3, r7
	bl	uECC_vli_modSub
.LVL562:
	.loc 3 505 5 is_stmt 1 view .LVU1402
	mov	r3, r5
	add	r2, sp, #100
.LVL563:
	.loc 3 505 5 is_stmt 0 view .LVU1403
	add	r1, sp, #16
.LVL564:
	.loc 3 505 5 view .LVU1404
	mov	r0, r9
	bl	uECC_vli_modMult_fast
.LVL565:
	.loc 3 506 5 is_stmt 1 view .LVU1405
	mov	r3, r7
	add	r2, sp, #184
	mov	r1, r9
	mov	r0, r9
	str	r8, [sp]
	bl	uECC_vli_modAdd
.LVL566:
	.loc 3 507 5 view .LVU1406
	mov	r3, r5
	add	r2, sp, #128
.LVL567:
	.loc 3 507 5 is_stmt 0 view .LVU1407
	add	r1, sp, #16
.LVL568:
	.loc 3 507 5 view .LVU1408
	add	r0, sp, #184
	bl	uECC_vli_modMult_fast
.LVL569:
	.loc 3 508 5 is_stmt 1 view .LVU1409
	mov	r3, r5
	mov	r2, r4
	add	r1, sp, #100
.LVL570:
	.loc 3 508 5 is_stmt 0 view .LVU1410
	mov	r0, r4
	bl	uECC_vli_modMult_fast
.LVL571:
	.loc 3 509 5 is_stmt 1 view .LVU1411
	mov	r3, r7
	add	r2, sp, #184
	mov	r1, r4
	mov	r0, r4
	str	r8, [sp]
	bl	uECC_vli_modAdd
.LVL572:
	.loc 3 510 5 view .LVU1412
	mov	r2, r5
	mov	r1, r4
	add	r0, sp, #72
	bl	uECC_vli_modSquare_fast
.LVL573:
	.loc 3 511 5 view .LVU1413
	add	r1, sp, #72
	mov	r0, r1
	mov	r3, r5
	mov	r2, r6
	bl	uECC_vli_modMult_fast
.LVL574:
	.loc 3 513 5 view .LVU1414
	add	r2, sp, #72
	mov	r3, r7
	mov	r0, r2
	ldr	r1, .L201
	str	r8, [sp]
	bl	uECC_vli_modSub
.LVL575:
	.loc 3 514 5 view .LVU1415
	movs	r2, #7
	mov	r1, r9
	add	r0, sp, #16
.LVL576:
	.loc 3 514 5 is_stmt 0 view .LVU1416
	bl	uECC_vli_set
.LVL577:
	.loc 3 514 5 view .LVU1417
.LBE74:
.LBE77:
	.loc 3 535 9 is_stmt 1 view .LVU1418
	movs	r2, #7
	add	r1, sp, #16
	add	r0, sp, #100
.LVL578:
	.loc 3 535 9 is_stmt 0 view .LVU1419
	bl	uECC_vli_set
.LVL579:
	.loc 3 536 9 is_stmt 1 view .LVU1420
	movs	r2, #7
	mov	r1, r4
.LVL580:
	.loc 3 536 9 is_stmt 0 view .LVU1421
	add	r0, sp, #128
	bl	uECC_vli_set
.LVL581:
	.loc 3 537 9 is_stmt 1 view .LVU1422
	movs	r2, #7
	add	r1, sp, #72
	add	r0, sp, #156
	bl	uECC_vli_set
.LVL582:
	.loc 3 538 9 view .LVU1423
	.loc 3 538 15 is_stmt 0 view .LVU1424
	ldr	r3, [sp, #8]
	lsls	r3, r3, #1
	sxtb	r3, r3
	str	r3, [sp, #8]
.LVL583:
	.loc 3 532 25 is_stmt 1 view .LVU1425
	.loc 3 532 17 view .LVU1426
	add	r3, fp, #-1
	.loc 3 532 5 is_stmt 0 view .LVU1427
	ands	fp, r3, #255
.LVL584:
	.loc 3 532 5 view .LVU1428
	bne	.L196
.LVL585:
	.loc 3 532 5 view .LVU1429
.LBE66:
.LBE65:
	.loc 3 555 5 is_stmt 1 view .LVU1430
	add	r3, sp, #72
	strd	r4, r3, [sp]
	add	r2, sp, #184
	add	r3, sp, #16
	add	r1, sp, #156
	mov	r0, r9
	bl	mod_sqrt_secp224r1_rs
.LVL586:
	.loc 3 556 5 view .LVU1431
	.loc 3 556 17 view .LVU1432
	.loc 3 555 5 is_stmt 0 view .LVU1433
	movs	r5, #95
.LVL587:
.L198:
	.loc 3 557 9 is_stmt 1 view .LVU1434
	movs	r2, #7
	mov	r1, r9
	add	r0, sp, #16
	bl	uECC_vli_set
.LVL588:
	.loc 3 558 9 view .LVU1435
	movs	r2, #7
	add	r1, sp, #156
	mov	r0, r4
	bl	uECC_vli_set
.LVL589:
	.loc 3 559 9 view .LVU1436
	movs	r2, #7
	add	r1, sp, #184
	add	r0, sp, #72
	bl	uECC_vli_set
.LVL590:
	.loc 3 560 9 view .LVU1437
	add	r3, sp, #72
	strd	r4, r3, [sp]
	add	r1, sp, #156
	mov	r0, r9
	add	r3, sp, #16
	add	r2, sp, #184
	bl	mod_sqrt_secp224r1_rs
.LVL591:
	.loc 3 561 9 view .LVU1438
	.loc 3 561 13 is_stmt 0 view .LVU1439
	movs	r1, #7
	mov	r0, r9
	bl	uECC_vli_isZero
.LVL592:
	.loc 3 561 12 view .LVU1440
	cbnz	r0, .L197
	.loc 3 556 26 is_stmt 1 discriminator 2 view .LVU1441
.LVL593:
	.loc 3 556 17 discriminator 2 view .LVU1442
	subs	r5, r5, #1
.LVL594:
	.loc 3 556 17 is_stmt 0 discriminator 2 view .LVU1443
	uxth	r5, r5
	.loc 3 556 5 discriminator 2 view .LVU1444
	cmp	r5, #0
	bne	.L198
.L197:
	.loc 3 565 5 is_stmt 1 view .LVU1445
	mov	r1, r4
	add	r0, sp, #184
	ldr	r2, .L201
	movs	r3, #7
	bl	uECC_vli_modInv
.LVL595:
	.loc 3 566 5 view .LVU1446
	ldr	r3, .L201+4
	add	r2, sp, #184
	add	r1, sp, #16
	mov	r0, r6
	bl	uECC_vli_modMult_fast
.LVL596:
	.loc 3 567 1 is_stmt 0 view .LVU1447
	add	sp, sp, #244
.LCFI98:
	@ sp needed
	pop	{r4, r5, r6, r7, r8, r9, r10, fp, pc}
.LVL597:
.L195:
.LCFI99:
.LBB80:
.LBB79:
.LBB78:
.LBB70:
	.loc 3 485 9 is_stmt 1 view .LVU1448
	add	r3, sp, #16
.LVL598:
	.loc 3 485 9 is_stmt 0 view .LVU1449
	strd	r4, r10, [sp]
	mov	r2, r10
	mov	r1, r4
	mov	r0, r3
	bl	mod_sqrt_secp224r1_rs
.LVL599:
	.loc 3 484 25 is_stmt 1 view .LVU1450
	.loc 3 484 25 is_stmt 0 view .LVU1451
	b	.L194
.L202:
	.align	2
.L201:
	.word	.LANCHOR2+4
	.word	.LANCHOR2
.LBE70:
.LBE78:
.LBE79:
.LBE80:
.LFE39:
	.size	mod_sqrt_secp224r1, .-mod_sqrt_secp224r1
	.section	.text.EccPoint_mult,"ax",%progbits
	.align	1
	.syntax unified
	.thumb
	.thumb_func
	.fpu fpv4-sp-d16
	.type	EccPoint_mult, %function
EccPoint_mult:
.LVL600:
.LFB52:
	.loc 2 868 45 is_stmt 1 view -0
	@ args = 8, pretend = 0, frame = 184
	@ frame_needed = 0, uses_anonymous_args = 0
	.loc 2 870 5 view .LVU1453
	.loc 2 871 5 view .LVU1454
	.loc 2 872 5 view .LVU1455
	.loc 2 873 5 view .LVU1456
	.loc 2 874 5 view .LVU1457
	.loc 2 875 5 view .LVU1458
	.loc 2 868 45 is_stmt 0 view .LVU1459
	push	{r4, r5, r6, r7, r8, r9, r10, fp, lr}
.LCFI100:
	sub	sp, sp, #196
.LCFI101:
	.loc 2 868 45 view .LVU1460
	strd	r0, r1, [sp, #8]
	ldr	r4, [sp, #236]
	str	r2, [sp, #16]
	.loc 2 875 17 view .LVU1461
	ldrsb	r7, [r4]
.LVL601:
	.loc 2 877 5 is_stmt 1 view .LVU1462
	add	r0, sp, #96
.LVL602:
	.loc 2 877 5 is_stmt 0 view .LVU1463
	mov	r2, r7
.LVL603:
	.loc 2 868 45 view .LVU1464
	mov	r5, r3
	.loc 2 877 5 view .LVU1465
	bl	uECC_vli_set
.LVL604:
	.loc 2 878 5 is_stmt 1 view .LVU1466
	.loc 2 878 31 is_stmt 0 view .LVU1467
	lsls	r3, r7, #2
	str	r3, [sp, #20]
	.loc 2 878 5 view .LVU1468
	ldr	r3, [sp, #12]
	add	r10, r3, r7, lsl #2
	mov	r1, r10
.LVL605:
	.loc 2 878 5 view .LVU1469
	add	r0, sp, #160
	bl	uECC_vli_set
.LVL606:
	.loc 2 880 5 is_stmt 1 view .LVU1470
.LBB85:
.LBI85:
	.loc 2 767 13 view .LVU1471
.LBB86:
	.loc 2 773 5 view .LVU1472
	.loc 2 774 5 view .LVU1473
	.loc 2 774 17 is_stmt 0 view .LVU1474
	ldrsb	r2, [r4]
.LVL607:
	.loc 2 775 5 is_stmt 1 view .LVU1475
	.loc 2 775 8 is_stmt 0 view .LVU1476
	cmp	r5, #0
	beq	.L204
	.loc 2 776 9 is_stmt 1 view .LVU1477
	mov	r1, r5
	add	r0, sp, #32
.LVL608:
	.loc 2 776 9 is_stmt 0 view .LVU1478
	str	r2, [sp, #24]
	bl	uECC_vli_set
.LVL609:
.L208:
	.loc 2 782 5 view .LVU1479
	add	r8, sp, #64
.LVL610:
	.loc 2 779 14 view .LVU1480
	ldr	r2, [sp, #24]
	.loc 2 782 5 is_stmt 1 view .LVU1481
	str	r2, [sp, #24]
.LVL611:
	.loc 2 782 5 is_stmt 0 view .LVU1482
	add	r1, sp, #96
.LVL612:
	.loc 2 782 5 view .LVU1483
	mov	r0, r8
	.loc 2 783 5 view .LVU1484
	add	r9, sp, #128
.LVL613:
	.loc 2 782 5 view .LVU1485
	bl	uECC_vli_set
.LVL614:
	.loc 2 783 5 is_stmt 1 view .LVU1486
	ldr	r2, [sp, #24]
	add	r1, sp, #160
.LVL615:
	.loc 2 783 5 is_stmt 0 view .LVU1487
	mov	r0, r9
	bl	uECC_vli_set
.LVL616:
	.loc 2 785 5 is_stmt 1 view .LVU1488
	mov	r3, r4
	add	r2, sp, #32
	add	r1, sp, #160
	.loc 2 785 5 is_stmt 0 view .LVU1489
	add	r0, sp, #96
.LVL617:
	.loc 2 785 5 view .LVU1490
	bl	apply_z
.LVL618:
	.loc 2 786 5 is_stmt 1 view .LVU1491
	ldr	r5, [r4, #164]
.LVL619:
	.loc 2 786 5 is_stmt 0 view .LVU1492
	mov	r3, r4
	add	r2, sp, #32
	add	r1, sp, #160
.LVL620:
	.loc 2 786 5 view .LVU1493
	add	r0, sp, #96
.LVL621:
	.loc 2 786 5 view .LVU1494
	blx	r5
.LVL622:
	.loc 2 787 5 is_stmt 1 view .LVU1495
	mov	r3, r4
	add	r2, sp, #32
	mov	r1, r9
	mov	r0, r8
	bl	apply_z
.LVL623:
	.loc 2 787 5 is_stmt 0 view .LVU1496
.LBE86:
.LBE85:
	.loc 2 882 5 is_stmt 1 view .LVU1497
	.loc 2 882 23 is_stmt 0 view .LVU1498
	ldrsh	r5, [sp, #232]
	subs	r5, r5, #2
.L209:
	sxth	r5, r5
.LVL624:
	.loc 2 882 28 is_stmt 1 discriminator 3 view .LVU1499
	.loc 2 882 5 is_stmt 0 discriminator 3 view .LVU1500
	cmp	r5, #0
	bgt	.L207
	.loc 2 888 5 is_stmt 1 view .LVU1501
.LVL625:
.LBB88:
.LBI88:
	.loc 2 233 26 view .LVU1502
.LBB89:
	.loc 2 234 5 view .LVU1503
	.loc 2 234 16 is_stmt 0 view .LVU1504
	ldr	r3, [sp, #16]
	ldr	r5, [r3]
.LVL626:
	.loc 2 234 16 view .LVU1505
.LBE89:
.LBE88:
	.loc 2 889 5 is_stmt 1 view .LVU1506
	str	r4, [sp]
.LBB91:
.LBB90:
	.loc 2 234 46 is_stmt 0 view .LVU1507
	and	r6, r5, #1
.LBE90:
.LBE91:
	.loc 2 889 17 view .LVU1508
	add	r3, sp, #64
	add	r8, r3, r6, lsl #5
	mvns	r5, r5
.LVL627:
	.loc 2 889 29 view .LVU1509
	add	r3, sp, #128
	add	r6, r3, r6, lsl #5
	and	r5, r5, #1
.LVL628:
	.loc 2 889 41 view .LVU1510
	add	r3, sp, #64
	add	r9, r3, r5, lsl #5
	.loc 2 889 49 view .LVU1511
	add	r3, sp, #128
	add	r5, r3, r5, lsl #5
.LVL629:
	.loc 2 892 43 view .LVU1512
	add	fp, r4, #4
	.loc 2 889 5 view .LVU1513
	mov	r3, r5
	mov	r2, r9
	mov	r1, r6
	mov	r0, r8
	bl	XYcZ_addC
.LVL630:
	.loc 2 892 5 is_stmt 1 view .LVU1514
	mov	r3, fp
	add	r2, sp, #64
	add	r1, sp, #96
	add	r0, sp, #32
	str	r7, [sp]
	bl	uECC_vli_modSub
.LVL631:
	.loc 2 893 5 view .LVU1515
	add	r1, sp, #32
	mov	r3, r4
	mov	r2, r6
	mov	r0, r1
	bl	uECC_vli_modMult_fast
.LVL632:
	.loc 2 894 5 view .LVU1516
	add	r1, sp, #32
	ldr	r2, [sp, #12]
	mov	r3, r4
	mov	r0, r1
	bl	uECC_vli_modMult_fast
.LVL633:
	.loc 2 895 5 view .LVU1517
	add	r1, sp, #32
	mov	r3, r7
	mov	r2, fp
	mov	r0, r1
	bl	uECC_vli_modInv
.LVL634:
	.loc 2 897 5 view .LVU1518
	add	r1, sp, #32
	mov	r3, r4
	mov	r2, r10
	mov	r0, r1
	bl	uECC_vli_modMult_fast
.LVL635:
	.loc 2 898 5 view .LVU1519
	add	r1, sp, #32
	mov	r3, r4
	mov	r2, r8
	mov	r0, r1
	bl	uECC_vli_modMult_fast
.LVL636:
	.loc 2 901 5 view .LVU1520
	str	r4, [sp]
	mov	r3, r6
	mov	r2, r8
	mov	r1, r5
	mov	r0, r9
	bl	XYcZ_add
.LVL637:
	.loc 2 902 5 view .LVU1521
	mov	r3, r4
	add	r2, sp, #32
	add	r1, sp, #128
	add	r0, sp, #64
	bl	apply_z
.LVL638:
	.loc 2 904 5 view .LVU1522
	ldr	r0, [sp, #8]
	mov	r2, r7
	add	r1, sp, #64
	bl	uECC_vli_set
.LVL639:
	.loc 2 905 5 view .LVU1523
	ldr	r3, [sp, #8]
	ldr	r4, [sp, #20]
	add	r3, r3, r4
	add	r1, sp, #128
	mov	r0, r3
	bl	uECC_vli_set
.LVL640:
	.loc 2 906 1 is_stmt 0 view .LVU1524
	add	sp, sp, #196
.LCFI102:
	@ sp needed
	pop	{r4, r5, r6, r7, r8, r9, r10, fp, pc}
.LVL641:
.L204:
.LCFI103:
.LBB92:
.LBB87:
	.loc 2 778 9 is_stmt 1 view .LVU1525
	mov	r1, r2
	add	r0, sp, #32
.LVL642:
	.loc 2 778 9 is_stmt 0 view .LVU1526
	str	r2, [sp, #24]
	bl	uECC_vli_clear
.LVL643:
	.loc 2 779 9 is_stmt 1 view .LVU1527
	.loc 2 779 14 is_stmt 0 view .LVU1528
	movs	r3, #1
	str	r3, [sp, #32]
	b	.L208
.LVL644:
.L207:
	.loc 2 779 14 view .LVU1529
.LBE87:
.LBE92:
	.loc 2 883 9 is_stmt 1 discriminator 3 view .LVU1530
	.loc 2 883 15 is_stmt 0 discriminator 3 view .LVU1531
	mov	r1, r5
	ldr	r0, [sp, #16]
	bl	uECC_vli_testBit
.LVL645:
	.loc 2 883 14 discriminator 3 view .LVU1532
	clz	r6, r0
	lsrs	r6, r6, #5
.LVL646:
	.loc 2 884 9 is_stmt 1 discriminator 3 view .LVU1533
	.loc 2 884 24 is_stmt 0 discriminator 3 view .LVU1534
	rsb	r1, r6, #1
	.loc 2 884 45 discriminator 3 view .LVU1535
	add	fp, r8, r6, lsl #5
	.loc 2 884 53 discriminator 3 view .LVU1536
	add	r6, r9, r6, lsl #5
.LVL647:
	.loc 2 884 21 discriminator 3 view .LVU1537
	add	r0, r8, r1, lsl #5
.LVL648:
	.loc 2 884 9 discriminator 3 view .LVU1538
	mov	r3, r6
	.loc 2 884 33 discriminator 3 view .LVU1539
	add	r1, r9, r1, lsl #5
	.loc 2 884 9 discriminator 3 view .LVU1540
	mov	r2, fp
	str	r4, [sp]
	strd	r0, r1, [sp, #24]
	bl	XYcZ_addC
.LVL649:
	.loc 2 885 9 is_stmt 1 discriminator 3 view .LVU1541
	ldr	r1, [sp, #28]
	ldr	r0, [sp, #24]
	str	r4, [sp]
	mov	r3, r1
	mov	r2, r0
	mov	r1, r6
	mov	r0, fp
	bl	XYcZ_add
.LVL650:
	.loc 2 882 35 discriminator 3 view .LVU1542
	subs	r5, r5, #1
.LVL651:
	.loc 2 882 35 is_stmt 0 discriminator 3 view .LVU1543
	b	.L209
.LFE52:
	.size	EccPoint_mult, .-EccPoint_mult
	.section	.text.EccPoint_compute_public_key,"ax",%progbits
	.align	1
	.syntax unified
	.thumb
	.thumb_func
	.fpu fpv4-sp-d16
	.type	EccPoint_compute_public_key, %function
EccPoint_compute_public_key:
.LVL652:
.LFB54:
	.loc 2 923 66 is_stmt 1 view -0
	@ args = 0, pretend = 0, frame = 72
	@ frame_needed = 0, uses_anonymous_args = 0
	.loc 2 924 5 view .LVU1545
	.loc 2 925 5 view .LVU1546
	.loc 2 926 5 view .LVU1547
	.loc 2 923 66 is_stmt 0 view .LVU1548
	push	{r4, r5, lr}
.LCFI104:
	mov	r4, r2
	sub	sp, sp, #84
.LCFI105:
	.loc 2 923 66 view .LVU1549
	mov	r5, r0
	.loc 2 926 18 view .LVU1550
	add	r2, sp, #48
.LVL653:
	.loc 2 931 13 view .LVU1551
	mov	r3, r4
	.loc 2 923 66 view .LVU1552
	mov	r0, r1
.LVL654:
	.loc 2 926 18 view .LVU1553
	add	r1, sp, #16
.LVL655:
	.loc 2 926 18 view .LVU1554
	str	r1, [sp, #8]
	str	r2, [sp, #12]
	.loc 2 927 5 is_stmt 1 view .LVU1555
	.loc 2 931 5 view .LVU1556
	.loc 2 931 13 is_stmt 0 view .LVU1557
	bl	regularize_k
.LVL656:
	.loc 2 933 5 is_stmt 1 view .LVU1558
	.loc 2 933 40 is_stmt 0 view .LVU1559
	clz	r3, r0
	lsrs	r3, r3, #5
	.loc 2 933 39 view .LVU1560
	add	r2, sp, #80
	add	r2, r2, r3, lsl #2
	.loc 2 933 70 view .LVU1561
	ldrh	r3, [r4, #2]
	.loc 2 933 5 view .LVU1562
	str	r4, [sp, #4]
	.loc 2 933 70 view .LVU1563
	adds	r3, r3, #1
	.loc 2 933 5 view .LVU1564
	sxth	r3, r3
	str	r3, [sp]
	ldr	r2, [r2, #-72]
	movs	r3, #0
	add	r1, r4, #68
	mov	r0, r5
.LVL657:
	.loc 2 933 5 view .LVU1565
	bl	EccPoint_mult
.LVL658:
	.loc 2 935 5 is_stmt 1 view .LVU1566
	.loc 2 935 9 is_stmt 0 view .LVU1567
	ldrb	r1, [r4]	@ zero_extendqisi2
	lsls	r1, r1, #1
	sxtb	r1, r1
	mov	r0, r5
	bl	uECC_vli_isZero
.LVL659:
	.loc 2 939 1 view .LVU1568
	clz	r0, r0
	lsrs	r0, r0, #5
	add	sp, sp, #84
.LCFI106:
	@ sp needed
	pop	{r4, r5, pc}
	.loc 2 939 1 view .LVU1569
.LFE54:
	.size	EccPoint_compute_public_key, .-EccPoint_compute_public_key
	.section	.text.uECC_sign_with_k,"ax",%progbits
	.align	1
	.syntax unified
	.thumb
	.thumb_func
	.fpu fpv4-sp-d16
	.type	uECC_sign_with_k, %function
uECC_sign_with_k:
.LVL660:
.LFB66:
	.loc 2 1243 47 is_stmt 1 view -0
	@ args = 8, pretend = 0, frame = 144
	@ frame_needed = 0, uses_anonymous_args = 0
	.loc 2 1245 5 view .LVU1571
	.loc 2 1246 5 view .LVU1572
	.loc 2 1247 5 view .LVU1573
	.loc 2 1243 47 is_stmt 0 view .LVU1574
	push	{r4, r5, r6, r7, r8, r9, r10, fp, lr}
.LCFI107:
	vpush.64	{d8}
.LCFI108:
	sub	sp, sp, #156
.LCFI109:
	.loc 2 1243 47 view .LVU1575
	mov	r5, r3
	ldr	r6, [sp, #204]
	.loc 2 1254 17 view .LVU1576
	ldrsb	r10, [r6]
	.loc 2 1243 47 view .LVU1577
	vmov	s16, r1	@ int
	mov	fp, r0
	.loc 2 1247 18 view .LVU1578
	add	r9, sp, #24
	add	r3, sp, #56
.LVL661:
	.loc 2 1259 9 view .LVU1579
	mov	r1, r10
.LVL662:
	.loc 2 1259 9 view .LVU1580
	mov	r0, r5
.LVL663:
	.loc 2 1243 47 view .LVU1581
	vmov	s17, r2	@ int
	.loc 2 1247 18 view .LVU1582
	str	r9, [sp, #16]
	str	r3, [sp, #20]
	.loc 2 1251 5 is_stmt 1 view .LVU1583
	.loc 2 1253 5 view .LVU1584
	.loc 2 1254 5 view .LVU1585
.LVL664:
	.loc 2 1255 5 view .LVU1586
	.loc 2 1256 5 view .LVU1587
	.loc 2 1259 5 view .LVU1588
	.loc 2 1259 9 is_stmt 0 view .LVU1589
	bl	uECC_vli_isZero
.LVL665:
	.loc 2 1259 8 view .LVU1590
	cbz	r0, .L212
.L215:
	.loc 2 1260 16 view .LVU1591
	movs	r0, #0
.L211:
	.loc 2 1310 1 view .LVU1592
	add	sp, sp, #156
.LCFI110:
	@ sp needed
	vldm	sp!, {d8}
.LCFI111:
.LVL666:
	.loc 2 1310 1 view .LVU1593
	pop	{r4, r5, r6, r7, r8, r9, r10, fp, pc}
.LVL667:
.L212:
.LCFI112:
	.loc 2 1255 31 discriminator 1 view .LVU1594
	ldrsh	r8, [r6, #2]
	adds	r4, r8, #31
	it	mi
	addmi	r4, r8, #62
	.loc 2 1255 17 discriminator 1 view .LVU1595
	sbfx	r4, r4, #5, #8
	.loc 2 1259 60 discriminator 1 view .LVU1596
	add	r7, r6, #36
	.loc 2 1259 42 discriminator 1 view .LVU1597
	mov	r2, r4
	mov	r1, r5
	mov	r0, r7
	bl	uECC_vli_cmp
.LVL668:
	.loc 2 1259 39 discriminator 1 view .LVU1598
	cmp	r0, #1
	.loc 2 1259 42 discriminator 1 view .LVU1599
	str	r0, [sp, #12]
	.loc 2 1259 39 discriminator 1 view .LVU1600
	bne	.L215
	.loc 2 1263 5 is_stmt 1 view .LVU1601
	.loc 2 1263 13 is_stmt 0 view .LVU1602
	mov	r3, r6
	add	r2, sp, #56
	mov	r1, r9
	mov	r0, r5
	bl	regularize_k
.LVL669:
	.loc 2 1264 5 is_stmt 1 view .LVU1603
	.loc 2 1264 35 is_stmt 0 view .LVU1604
	clz	r0, r0
.LVL670:
	.loc 2 1264 34 view .LVU1605
	add	r3, sp, #152
	.loc 2 1264 35 view .LVU1606
	lsrs	r0, r0, #5
	.loc 2 1264 58 view .LVU1607
	add	r8, r8, #1
	.loc 2 1264 34 view .LVU1608
	add	r0, r3, r0, lsl #2
	.loc 2 1264 5 view .LVU1609
	sxth	r3, r8
	str	r3, [sp]
	str	r6, [sp, #4]
	ldr	r2, [r0, #-136]
	add	r1, r6, #68
	add	r0, sp, #88
	movs	r3, #0
	bl	EccPoint_mult
.LVL671:
	.loc 2 1265 5 is_stmt 1 view .LVU1610
	.loc 2 1265 9 is_stmt 0 view .LVU1611
	mov	r1, r10
	add	r0, sp, #88
	bl	uECC_vli_isZero
.LVL672:
	.loc 2 1265 8 view .LVU1612
	cmp	r0, #0
	bne	.L215
	.loc 2 1271 5 is_stmt 1 view .LVU1613
	.loc 2 1271 9 is_stmt 0 view .LVU1614
	ldr	r3, .L222
	.loc 2 1271 8 view .LVU1615
	ldr	r3, [r3]
	cmp	r3, #0
	bne	.L216
	.loc 2 1272 9 is_stmt 1 view .LVU1616
	mov	r1, r4
	mov	r0, r9
	bl	uECC_vli_clear
.LVL673:
	.loc 2 1273 9 view .LVU1617
	.loc 2 1273 16 is_stmt 0 view .LVU1618
	ldr	r3, [sp, #12]
	str	r3, [sp, #24]
.L217:
	.loc 2 1280 5 is_stmt 1 view .LVU1619
	mov	r3, r7
	add	r2, sp, #24
	mov	r1, r5
	mov	r0, r5
	str	r4, [sp]
	bl	uECC_vli_modMult
.LVL674:
	.loc 2 1281 5 view .LVU1620
	mov	r3, r4
	mov	r2, r7
	mov	r1, r5
	mov	r0, r5
	bl	uECC_vli_modInv
.LVL675:
	.loc 2 1282 5 view .LVU1621
	mov	r3, r7
	add	r2, sp, #24
	mov	r1, r5
	mov	r0, r5
	str	r4, [sp]
	bl	uECC_vli_modMult
.LVL676:
	.loc 2 1285 5 view .LVU1622
	ldrsb	r1, [r6, #1]
	ldr	r0, [sp, #200]
	add	r2, sp, #88
	bl	uECC_vli_nativeToBytes
.LVL677:
	.loc 2 1291 5 view .LVU1623
	.loc 2 1291 46 is_stmt 0 view .LVU1624
	ldrsh	r3, [r6, #2]
	.loc 2 1291 5 view .LVU1625
	adds	r2, r3, #7
	it	mi
	addmi	r2, r3, #14
	asrs	r2, r2, #3
	mov	r1, fp
	add	r0, sp, #24
	bl	uECC_vli_bytesToNative
.LVL678:
	.loc 2 1294 5 is_stmt 1 view .LVU1626
	.loc 2 1294 24 is_stmt 0 view .LVU1627
	add	r2, sp, #152
	subs	r3, r4, #1
	add	r3, r2, r3, lsl #2
	movs	r2, #0
	str	r2, [r3, #-96]
	.loc 2 1295 5 is_stmt 1 view .LVU1628
	add	r1, sp, #88
	mov	r2, r10
	add	r0, sp, #56
	bl	uECC_vli_set
.LVL679:
	.loc 2 1296 5 view .LVU1629
	add	r2, sp, #56
	mov	r0, r2
	mov	r3, r7
	add	r1, sp, #24
	str	r4, [sp]
	bl	uECC_vli_modMult
.LVL680:
	.loc 2 1298 5 view .LVU1630
	vmov	r2, s17	@ int
	vmov	r1, s16	@ int
	mov	r3, r6
	add	r0, sp, #24
	bl	bits2int
.LVL681:
	.loc 2 1299 5 view .LVU1631
	add	r2, sp, #56
	mov	r0, r2
	mov	r3, r7
	add	r1, sp, #24
	str	r4, [sp]
	bl	uECC_vli_modAdd
.LVL682:
	.loc 2 1300 5 view .LVU1632
	add	r1, sp, #56
	mov	r0, r1
	mov	r3, r7
	mov	r2, r5
	str	r4, [sp]
	bl	uECC_vli_modMult
.LVL683:
	.loc 2 1301 5 view .LVU1633
	.loc 2 1301 9 is_stmt 0 view .LVU1634
	mov	r1, r4
	add	r0, sp, #56
	bl	uECC_vli_numBits
.LVL684:
	.loc 2 1301 61 view .LVU1635
	ldrsb	r1, [r6, #1]
	.loc 2 1301 8 view .LVU1636
	cmp	r0, r1, lsl #3
	bgt	.L215
	.loc 2 1307 5 is_stmt 1 view .LVU1637
	ldr	r3, [sp, #200]
	add	r2, sp, #56
	adds	r0, r3, r1
	bl	uECC_vli_nativeToBytes
.LVL685:
	.loc 2 1309 5 view .LVU1638
	.loc 2 1309 12 is_stmt 0 view .LVU1639
	movs	r0, #1
	b	.L211
.L216:
	.loc 2 1274 12 is_stmt 1 view .LVU1640
	.loc 2 1274 17 is_stmt 0 view .LVU1641
	mov	r2, r4
	mov	r1, r7
	mov	r0, r9
	bl	uECC_generate_random_int
.LVL686:
	.loc 2 1274 15 view .LVU1642
	cmp	r0, #0
	bne	.L217
	b	.L215
.L223:
	.align	2
.L222:
	.word	.LANCHOR5
.LFE66:
	.size	uECC_sign_with_k, .-uECC_sign_with_k
	.section	.text.double_jacobian_secp256k1,"ax",%progbits
	.align	1
	.syntax unified
	.thumb
	.thumb_func
	.fpu fpv4-sp-d16
	.type	double_jacobian_secp256k1, %function
double_jacobian_secp256k1:
.LVL687:
.LFB44:
	.loc 3 1113 57 is_stmt 1 view -0
	@ args = 0, pretend = 0, frame = 64
	@ frame_needed = 0, uses_anonymous_args = 0
	.loc 3 1115 5 view .LVU1644
	.loc 3 1116 5 view .LVU1645
	.loc 3 1118 5 view .LVU1646
	.loc 3 1113 57 is_stmt 0 view .LVU1647
	push	{r4, r5, r6, r7, r8, r9, lr}
.LCFI113:
	mov	r5, r0
	sub	sp, sp, #76
.LCFI114:
	.loc 3 1113 57 view .LVU1648
	mov	r4, r1
	.loc 3 1118 9 view .LVU1649
	mov	r0, r2
.LVL688:
	.loc 3 1118 9 view .LVU1650
	movs	r1, #8
.LVL689:
	.loc 3 1113 57 view .LVU1651
	mov	r7, r2
	mov	r6, r3
	.loc 3 1118 9 view .LVU1652
	bl	uECC_vli_isZero
.LVL690:
	.loc 3 1118 8 view .LVU1653
	cmp	r0, #0
	bne	.L224
.LVL691:
.LBB98:
.LBI98:
	.loc 3 1110 13 is_stmt 1 view .LVU1654
.LBB99:
	.loc 3 1122 5 view .LVU1655
	mov	r2, r6
	mov	r1, r4
	add	r0, sp, #40
	bl	uECC_vli_modSquare_fast
.LVL692:
	.loc 3 1123 5 view .LVU1656
	mov	r3, r6
	add	r2, sp, #40
	mov	r1, r5
	add	r0, sp, #8
	bl	uECC_vli_modMult_fast
.LVL693:
	.loc 3 1124 5 view .LVU1657
	mov	r2, r6
	mov	r1, r5
	mov	r0, r5
	bl	uECC_vli_modSquare_fast
.LVL694:
	.loc 3 1125 5 view .LVU1658
	add	r1, sp, #40
	mov	r0, r1
	mov	r2, r6
	bl	uECC_vli_modSquare_fast
.LVL695:
	.loc 3 1126 5 view .LVU1659
	.loc 3 1128 5 is_stmt 0 view .LVU1660
	mov	r8, #8
	.loc 3 1126 5 view .LVU1661
	mov	r2, r7
	mov	r0, r7
	mov	r3, r6
	mov	r1, r4
	.loc 3 1128 38 view .LVU1662
	adds	r7, r6, #4
.LVL696:
	.loc 3 1126 5 view .LVU1663
	bl	uECC_vli_modMult_fast
.LVL697:
	.loc 3 1128 5 is_stmt 1 view .LVU1664
	mov	r3, r7
	mov	r2, r5
	mov	r1, r5
	mov	r0, r4
	str	r8, [sp]
	bl	uECC_vli_modAdd
.LVL698:
	.loc 3 1129 5 view .LVU1665
	mov	r3, r7
	str	r8, [sp]
	mov	r2, r5
	mov	r1, r4
	mov	r0, r4
	bl	uECC_vli_modAdd
.LVL699:
	.loc 3 1130 5 view .LVU1666
.LBB100:
.LBI100:
	.loc 2 233 26 view .LVU1667
.LBB101:
	.loc 2 234 5 view .LVU1668
	.loc 2 234 46 is_stmt 0 view .LVU1669
	ldr	r3, [r4]
.LBE101:
.LBE100:
	.loc 3 1130 8 view .LVU1670
	lsls	r3, r3, #31
	bpl	.L226
.LBB102:
	.loc 3 1131 9 is_stmt 1 view .LVU1671
	.loc 3 1131 29 is_stmt 0 view .LVU1672
	mov	r3, r8
	mov	r2, r7
	mov	r1, r4
	mov	r0, r4
	bl	uECC_vli_add
.LVL700:
	.loc 3 1132 9 view .LVU1673
	mov	r1, r8
	.loc 3 1131 29 view .LVU1674
	mov	r9, r0
.LVL701:
	.loc 3 1132 9 is_stmt 1 view .LVU1675
	mov	r0, r4
.LVL702:
	.loc 3 1132 9 is_stmt 0 view .LVU1676
	bl	uECC_vli_rshift1
.LVL703:
	.loc 3 1133 9 is_stmt 1 view .LVU1677
	.loc 3 1133 37 is_stmt 0 view .LVU1678
	ldr	r3, [r4, #28]
	orr	r3, r3, r9, lsl #31
	str	r3, [r4, #28]
.LVL704:
.L227:
	.loc 3 1133 37 view .LVU1679
.LBE102:
	.loc 3 1139 5 is_stmt 1 view .LVU1680
	.loc 3 1140 5 is_stmt 0 view .LVU1681
	mov	r8, #8
	.loc 3 1139 5 view .LVU1682
	mov	r2, r6
	mov	r1, r4
	mov	r0, r5
	bl	uECC_vli_modSquare_fast
.LVL705:
	.loc 3 1140 5 is_stmt 1 view .LVU1683
	mov	r3, r7
	add	r2, sp, r8
	mov	r1, r5
	mov	r0, r5
	str	r8, [sp]
	bl	uECC_vli_modSub
.LVL706:
	.loc 3 1141 5 view .LVU1684
	mov	r3, r7
	add	r2, sp, r8
	mov	r1, r5
	mov	r0, r5
	str	r8, [sp]
	bl	uECC_vli_modSub
.LVL707:
	.loc 3 1143 5 view .LVU1685
	add	r1, sp, r8
	mov	r0, r1
	mov	r3, r7
	mov	r2, r5
	str	r8, [sp]
	bl	uECC_vli_modSub
.LVL708:
	.loc 3 1144 5 view .LVU1686
	mov	r3, r6
	add	r2, sp, r8
	mov	r1, r4
	mov	r0, r4
	bl	uECC_vli_modMult_fast
.LVL709:
	.loc 3 1145 5 view .LVU1687
	str	r8, [sp]
	mov	r3, r7
	add	r2, sp, #40
	mov	r1, r4
	mov	r0, r4
	bl	uECC_vli_modSub
.LVL710:
.L224:
	.loc 3 1145 5 is_stmt 0 view .LVU1688
.LBE99:
.LBE98:
	.loc 3 1146 1 view .LVU1689
	add	sp, sp, #76
.LCFI115:
	@ sp needed
	pop	{r4, r5, r6, r7, r8, r9, pc}
.LVL711:
.L226:
.LCFI116:
.LBB104:
.LBB103:
	.loc 3 1135 9 is_stmt 1 view .LVU1690
	mov	r1, r8
	mov	r0, r4
	bl	uECC_vli_rshift1
.LVL712:
	b	.L227
.LBE103:
.LBE104:
.LFE44:
	.size	double_jacobian_secp256k1, .-double_jacobian_secp256k1
	.section	.text.uECC_set_rng,"ax",%progbits
	.align	1
	.global	uECC_set_rng
	.syntax unified
	.thumb
	.thumb_func
	.fpu fpv4-sp-d16
	.type	uECC_set_rng, %function
uECC_set_rng:
.LVL713:
.LFB4:
	.loc 2 196 51 view -0
	@ args = 0, pretend = 0, frame = 0
	@ frame_needed = 0, uses_anonymous_args = 0
	@ link register save eliminated.
	.loc 2 197 5 view .LVU1692
	.loc 2 197 20 is_stmt 0 view .LVU1693
	ldr	r3, .L229
	str	r0, [r3]
	.loc 2 198 1 view .LVU1694
	bx	lr
.L230:
	.align	2
.L229:
	.word	.LANCHOR5
.LFE4:
	.size	uECC_set_rng, .-uECC_set_rng
	.section	.text.uECC_get_rng,"ax",%progbits
	.align	1
	.global	uECC_get_rng
	.syntax unified
	.thumb
	.thumb_func
	.fpu fpv4-sp-d16
	.type	uECC_get_rng, %function
uECC_get_rng:
.LFB5:
	.loc 2 200 38 is_stmt 1 view -0
	@ args = 0, pretend = 0, frame = 0
	@ frame_needed = 0, uses_anonymous_args = 0
	@ link register save eliminated.
	.loc 2 201 5 view .LVU1696
	.loc 2 202 1 is_stmt 0 view .LVU1697
	ldr	r3, .L232
	ldr	r0, [r3]
	bx	lr
.L233:
	.align	2
.L232:
	.word	.LANCHOR5
.LFE5:
	.size	uECC_get_rng, .-uECC_get_rng
	.section	.text.uECC_curve_private_key_size,"ax",%progbits
	.align	1
	.global	uECC_curve_private_key_size
	.syntax unified
	.thumb
	.thumb_func
	.fpu fpv4-sp-d16
	.type	uECC_curve_private_key_size, %function
uECC_curve_private_key_size:
.LVL714:
.LFB6:
	.loc 2 204 51 is_stmt 1 view -0
	@ args = 0, pretend = 0, frame = 0
	@ frame_needed = 0, uses_anonymous_args = 0
	@ link register save eliminated.
	.loc 2 205 5 view .LVU1699
	.loc 2 205 12 is_stmt 0 view .LVU1700
	ldrsh	r3, [r0, #2]
	adds	r0, r3, #7
.LVL715:
	.loc 2 205 12 view .LVU1701
	it	mi
	addmi	r0, r3, #14
	.loc 2 206 1 view .LVU1702
	asrs	r0, r0, #3
	bx	lr
.LFE6:
	.size	uECC_curve_private_key_size, .-uECC_curve_private_key_size
	.section	.text.uECC_curve_public_key_size,"ax",%progbits
	.align	1
	.global	uECC_curve_public_key_size
	.syntax unified
	.thumb
	.thumb_func
	.fpu fpv4-sp-d16
	.type	uECC_curve_public_key_size, %function
uECC_curve_public_key_size:
.LVL716:
.LFB7:
	.loc 2 208 50 is_stmt 1 view -0
	@ args = 0, pretend = 0, frame = 0
	@ frame_needed = 0, uses_anonymous_args = 0
	@ link register save eliminated.
	.loc 2 209 5 view .LVU1704
	.loc 2 209 14 is_stmt 0 view .LVU1705
	ldrsb	r0, [r0, #1]
.LVL717:
	.loc 2 210 1 view .LVU1706
	lsls	r0, r0, #1
	bx	lr
.LFE7:
	.size	uECC_curve_public_key_size, .-uECC_curve_public_key_size
	.section	.text.uECC_secp160r1,"ax",%progbits
	.align	1
	.global	uECC_secp160r1
	.syntax unified
	.thumb
	.thumb_func
	.fpu fpv4-sp-d16
	.type	uECC_secp160r1, %function
uECC_secp160r1:
.LFB29:
	.loc 3 169 33 is_stmt 1 view -0
	@ args = 0, pretend = 0, frame = 0
	@ frame_needed = 0, uses_anonymous_args = 0
	@ link register save eliminated.
	.loc 3 169 35 view .LVU1708
	.loc 3 169 1 is_stmt 0 view .LVU1709
	ldr	r0, .L238
	bx	lr
.L239:
	.align	2
.L238:
	.word	.LANCHOR0
.LFE29:
	.size	uECC_secp160r1, .-uECC_secp160r1
	.section	.text.uECC_secp192r1,"ax",%progbits
	.align	1
	.global	uECC_secp192r1
	.syntax unified
	.thumb
	.thumb_func
	.fpu fpv4-sp-d16
	.type	uECC_secp192r1, %function
uECC_secp192r1:
.LFB32:
	.loc 3 314 33 is_stmt 1 view -0
	@ args = 0, pretend = 0, frame = 0
	@ frame_needed = 0, uses_anonymous_args = 0
	@ link register save eliminated.
	.loc 3 314 35 view .LVU1711
	.loc 3 314 1 is_stmt 0 view .LVU1712
	ldr	r0, .L241
	bx	lr
.L242:
	.align	2
.L241:
	.word	.LANCHOR1
.LFE32:
	.size	uECC_secp192r1, .-uECC_secp192r1
	.section	.text.uECC_secp224r1,"ax",%progbits
	.align	1
	.global	uECC_secp224r1
	.syntax unified
	.thumb
	.thumb_func
	.fpu fpv4-sp-d16
	.type	uECC_secp224r1, %function
uECC_secp224r1:
.LFB34:
	.loc 3 449 33 is_stmt 1 view -0
	@ args = 0, pretend = 0, frame = 0
	@ frame_needed = 0, uses_anonymous_args = 0
	@ link register save eliminated.
	.loc 3 449 35 view .LVU1714
	.loc 3 449 1 is_stmt 0 view .LVU1715
	ldr	r0, .L244
	bx	lr
.L245:
	.align	2
.L244:
	.word	.LANCHOR2
.LFE34:
	.size	uECC_secp224r1, .-uECC_secp224r1
	.section	.text.uECC_secp256r1,"ax",%progbits
	.align	1
	.global	uECC_secp256r1
	.syntax unified
	.thumb
	.thumb_func
	.fpu fpv4-sp-d16
	.type	uECC_secp256r1, %function
uECC_secp256r1:
.LFB41:
	.loc 3 771 33 is_stmt 1 view -0
	@ args = 0, pretend = 0, frame = 0
	@ frame_needed = 0, uses_anonymous_args = 0
	@ link register save eliminated.
	.loc 3 771 35 view .LVU1717
	.loc 3 771 1 is_stmt 0 view .LVU1718
	ldr	r0, .L247
	bx	lr
.L248:
	.align	2
.L247:
	.word	.LANCHOR3
.LFE41:
	.size	uECC_secp256r1, .-uECC_secp256r1
	.section	.text.uECC_secp256k1,"ax",%progbits
	.align	1
	.global	uECC_secp256k1
	.syntax unified
	.thumb
	.thumb_func
	.fpu fpv4-sp-d16
	.type	uECC_secp256k1, %function
uECC_secp256k1:
.LFB43:
	.loc 3 1106 33 is_stmt 1 view -0
	@ args = 0, pretend = 0, frame = 0
	@ frame_needed = 0, uses_anonymous_args = 0
	@ link register save eliminated.
	.loc 3 1106 35 view .LVU1720
	.loc 3 1106 1 is_stmt 0 view .LVU1721
	ldr	r0, .L250
	bx	lr
.L251:
	.align	2
.L250:
	.word	.LANCHOR4
.LFE43:
	.size	uECC_secp256k1, .-uECC_secp256k1
	.section	.text.uECC_make_key,"ax",%progbits
	.align	1
	.global	uECC_make_key
	.syntax unified
	.thumb
	.thumb_func
	.fpu fpv4-sp-d16
	.type	uECC_make_key, %function
uECC_make_key:
.LVL718:
.LFB58:
	.loc 2 1012 37 is_stmt 1 view -0
	@ args = 0, pretend = 0, frame = 96
	@ frame_needed = 0, uses_anonymous_args = 0
	.loc 2 1017 5 view .LVU1723
	.loc 2 1018 5 view .LVU1724
	.loc 2 1020 5 view .LVU1725
	.loc 2 1022 5 view .LVU1726
	.loc 2 1022 21 view .LVU1727
	.loc 2 1012 37 is_stmt 0 view .LVU1728
	push	{r4, r5, r6, r7, r8, lr}
.LCFI117:
	mov	r5, r0
	sub	sp, sp, #96
.LCFI118:
	.loc 2 1012 37 view .LVU1729
	mov	r7, r1
	mov	r4, r2
	movs	r6, #64
	.loc 2 1023 53 view .LVU1730
	add	r8, r2, #36
.LVL719:
.L258:
	.loc 2 1023 9 is_stmt 1 view .LVU1731
	.loc 2 1023 58 is_stmt 0 view .LVU1732
	ldrsh	r3, [r4, #2]
	adds	r2, r3, #31
	it	mi
	addmi	r2, r3, #62
	.loc 2 1023 14 view .LVU1733
	sbfx	r2, r2, #5, #8
	mov	r1, r8
	mov	r0, sp
	bl	uECC_generate_random_int
.LVL720:
	.loc 2 1023 12 view .LVU1734
	cbz	r0, .L254
	.loc 2 1027 9 is_stmt 1 view .LVU1735
	.loc 2 1027 13 is_stmt 0 view .LVU1736
	mov	r2, r4
	mov	r1, sp
	add	r0, sp, #32
	bl	EccPoint_compute_public_key
.LVL721:
	.loc 2 1027 12 view .LVU1737
	cbz	r0, .L255
	.loc 2 1029 13 is_stmt 1 view .LVU1738
	.loc 2 1029 49 is_stmt 0 view .LVU1739
	ldrsh	r3, [r4, #2]
	.loc 2 1029 13 view .LVU1740
	adds	r1, r3, #7
	it	mi
	addmi	r1, r3, #14
	mov	r2, sp
	asrs	r1, r1, #3
	mov	r0, r7
	bl	uECC_vli_nativeToBytes
.LVL722:
	.loc 2 1030 13 is_stmt 1 view .LVU1741
	ldrsb	r1, [r4, #1]
	add	r2, sp, #32
	mov	r0, r5
	bl	uECC_vli_nativeToBytes
.LVL723:
	.loc 2 1031 13 view .LVU1742
	.loc 2 1032 35 is_stmt 0 view .LVU1743
	ldrsb	r1, [r4, #1]
	.loc 2 1032 73 view .LVU1744
	ldrsb	r2, [r4]
	.loc 2 1031 13 view .LVU1745
	add	r3, sp, #32
	adds	r0, r5, r1
	add	r2, r3, r2, lsl #2
	bl	uECC_vli_nativeToBytes
.LVL724:
	.loc 2 1034 13 is_stmt 1 view .LVU1746
	.loc 2 1034 20 is_stmt 0 view .LVU1747
	movs	r0, #1
.LVL725:
.L252:
	.loc 2 1038 1 view .LVU1748
	add	sp, sp, #96
.LCFI119:
	@ sp needed
	pop	{r4, r5, r6, r7, r8, pc}
.LVL726:
.L255:
.LCFI120:
	.loc 2 1022 49 is_stmt 1 discriminator 2 view .LVU1749
	.loc 2 1022 21 discriminator 2 view .LVU1750
	.loc 2 1022 5 is_stmt 0 discriminator 2 view .LVU1751
	subs	r6, r6, #1
.LVL727:
	.loc 2 1022 5 discriminator 2 view .LVU1752
	bne	.L258
.LVL728:
.L254:
	.loc 2 1024 20 view .LVU1753
	movs	r0, #0
	b	.L252
.LFE58:
	.size	uECC_make_key, .-uECC_make_key
	.section	.text.uECC_shared_secret,"ax",%progbits
	.align	1
	.global	uECC_shared_secret
	.syntax unified
	.thumb
	.thumb_func
	.fpu fpv4-sp-d16
	.type	uECC_shared_secret, %function
uECC_shared_secret:
.LVL729:
.LFB59:
	.loc 2 1043 42 is_stmt 1 view -0
	@ args = 0, pretend = 0, frame = 144
	@ frame_needed = 0, uses_anonymous_args = 0
	.loc 2 1044 5 view .LVU1755
	.loc 2 1045 5 view .LVU1756
	.loc 2 1047 5 view .LVU1757
	.loc 2 1048 5 view .LVU1758
	.loc 2 1043 42 is_stmt 0 view .LVU1759
	push	{r4, r5, r6, r7, r8, r9, r10, lr}
.LCFI121:
	mov	r4, r3
	.loc 2 1052 17 view .LVU1760
	ldrsb	r6, [r3, #1]
	.loc 2 1051 17 view .LVU1761
	ldrsb	r9, [r3]
	.loc 2 1058 50 view .LVU1762
	ldrsh	r3, [r3, #2]
.LVL730:
	.loc 2 1043 42 view .LVU1763
	sub	sp, sp, #152
.LCFI122:
	.loc 2 1043 42 view .LVU1764
	mov	r7, r2
	.loc 2 1058 5 view .LVU1765
	adds	r2, r3, #7
.LVL731:
	.loc 2 1058 5 view .LVU1766
	it	mi
	addmi	r2, r3, #14
	.loc 2 1048 18 view .LVU1767
	add	r8, sp, #24
	.loc 2 1043 42 view .LVU1768
	mov	r5, r0
	.loc 2 1048 18 view .LVU1769
	add	r10, sp, #56
	.loc 2 1058 5 view .LVU1770
	asrs	r2, r2, #3
	mov	r0, r8
.LVL732:
	.loc 2 1048 18 view .LVU1771
	str	r8, [sp, #16]
	str	r10, [sp, #20]
	.loc 2 1049 5 is_stmt 1 view .LVU1772
.LVL733:
	.loc 2 1050 5 view .LVU1773
	.loc 2 1051 5 view .LVU1774
	.loc 2 1052 5 view .LVU1775
	.loc 2 1058 5 view .LVU1776
	bl	uECC_vli_bytesToNative
.LVL734:
	.loc 2 1059 5 view .LVU1777
	mov	r1, r5
	mov	r2, r6
	add	r0, sp, #88
	bl	uECC_vli_bytesToNative
.LVL735:
	.loc 2 1060 5 view .LVU1778
	add	r3, sp, #88
	adds	r1, r5, r6
	add	r0, r3, r9, lsl #2
	mov	r2, r6
	bl	uECC_vli_bytesToNative
.LVL736:
	.loc 2 1065 5 view .LVU1779
	.loc 2 1065 13 is_stmt 0 view .LVU1780
	mov	r3, r4
	mov	r2, r10
	mov	r1, r8
	mov	r0, r8
	bl	regularize_k
.LVL737:
	.loc 2 1069 9 view .LVU1781
	ldr	r3, .L271
	.loc 2 1069 8 view .LVU1782
	ldr	r3, [r3]
	.loc 2 1065 13 view .LVU1783
	mov	r5, r0
.LVL738:
	.loc 2 1069 5 is_stmt 1 view .LVU1784
	.loc 2 1069 8 is_stmt 0 view .LVU1785
	cbz	r3, .L265
	.loc 2 1070 9 is_stmt 1 view .LVU1786
	.loc 2 1070 14 is_stmt 0 view .LVU1787
	add	r3, sp, #152
	add	r3, r3, r0, lsl #2
	mov	r2, r9
	ldr	r3, [r3, #-136]
	str	r3, [sp, #12]
	mov	r0, r3
.LVL739:
	.loc 2 1070 14 view .LVU1788
	adds	r1, r4, #4
	bl	uECC_generate_random_int
.LVL740:
	.loc 2 1070 12 view .LVU1789
	ldr	r3, [sp, #12]
	cbz	r0, .L263
.L265:
.LVL741:
	.loc 2 1076 5 is_stmt 1 view .LVU1790
	.loc 2 1076 38 is_stmt 0 view .LVU1791
	clz	r0, r5
	.loc 2 1076 37 view .LVU1792
	add	r2, sp, #152
	.loc 2 1076 38 view .LVU1793
	lsrs	r0, r0, #5
	.loc 2 1076 37 view .LVU1794
	add	r0, r2, r0, lsl #2
	.loc 2 1076 76 view .LVU1795
	ldrh	r2, [r4, #2]
	.loc 2 1076 5 view .LVU1796
	str	r4, [sp, #4]
	.loc 2 1076 76 view .LVU1797
	adds	r2, r2, #1
	.loc 2 1076 5 view .LVU1798
	sxth	r2, r2
	add	r1, sp, #88
	str	r2, [sp]
	ldr	r2, [r0, #-136]
	mov	r0, r1
	bl	EccPoint_mult
.LVL742:
	.loc 2 1080 5 is_stmt 1 view .LVU1799
	add	r2, sp, #88
	mov	r1, r6
	mov	r0, r7
	bl	uECC_vli_nativeToBytes
.LVL743:
	.loc 2 1082 5 view .LVU1800
	.loc 2 1082 13 is_stmt 0 view .LVU1801
	ldrb	r1, [r4]	@ zero_extendqisi2
	lsls	r1, r1, #1
	sxtb	r1, r1
	add	r0, sp, #88
	bl	uECC_vli_isZero
.LVL744:
	.loc 2 1082 12 view .LVU1802
	clz	r0, r0
	lsrs	r0, r0, #5
.L263:
	.loc 2 1083 1 view .LVU1803
	add	sp, sp, #152
.LCFI123:
	@ sp needed
	pop	{r4, r5, r6, r7, r8, r9, r10, pc}
.LVL745:
.L272:
	.loc 2 1083 1 view .LVU1804
	.align	2
.L271:
	.word	.LANCHOR5
.LFE59:
	.size	uECC_shared_secret, .-uECC_shared_secret
	.section	.text.uECC_compress,"ax",%progbits
	.align	1
	.global	uECC_compress
	.syntax unified
	.thumb
	.thumb_func
	.fpu fpv4-sp-d16
	.type	uECC_compress, %function
uECC_compress:
.LVL746:
.LFB60:
	.loc 2 1086 86 is_stmt 1 view -0
	@ args = 0, pretend = 0, frame = 0
	@ frame_needed = 0, uses_anonymous_args = 0
	.loc 2 1087 5 view .LVU1806
	.loc 2 1088 5 view .LVU1807
	.loc 2 1086 86 is_stmt 0 view .LVU1808
	push	{r4, r5, lr}
.LCFI124:
	.loc 2 1088 5 view .LVU1809
	movs	r4, #0
.LVL747:
.L274:
	.loc 2 1088 26 discriminator 1 view .LVU1810
	ldrsb	r5, [r2, #1]
	sxtb	r3, r4
.LVL748:
	.loc 2 1088 17 is_stmt 1 discriminator 1 view .LVU1811
	.loc 2 1088 5 is_stmt 0 discriminator 1 view .LVU1812
	cmp	r5, r3
	bgt	.L275
	.loc 2 1094 5 is_stmt 1 view .LVU1813
	.loc 2 1094 36 is_stmt 0 view .LVU1814
	add	r0, r0, r5, lsl #1
.LVL749:
	.loc 2 1094 63 view .LVU1815
	ldrb	r3, [r0, #-1]	@ zero_extendqisi2
.LVL750:
	.loc 2 1094 63 view .LVU1816
	and	r3, r3, #1
	.loc 2 1094 23 view .LVU1817
	adds	r3, r3, #2
	.loc 2 1094 19 view .LVU1818
	strb	r3, [r1]
	.loc 2 1096 1 view .LVU1819
	pop	{r4, r5, pc}
.LVL751:
.L275:
	.loc 2 1089 9 is_stmt 1 discriminator 3 view .LVU1820
	.loc 2 1089 37 is_stmt 0 discriminator 3 view .LVU1821
	ldrb	r5, [r0, r3]	@ zero_extendqisi2
	.loc 2 1089 25 discriminator 3 view .LVU1822
	add	r3, r3, r1
.LVL752:
	.loc 2 1089 25 discriminator 3 view .LVU1823
	adds	r4, r4, #1
.LVL753:
	.loc 2 1089 25 discriminator 3 view .LVU1824
	strb	r5, [r3, #1]
	.loc 2 1088 39 is_stmt 1 discriminator 3 view .LVU1825
	.loc 2 1088 39 is_stmt 0 discriminator 3 view .LVU1826
	b	.L274
.LFE60:
	.size	uECC_compress, .-uECC_compress
	.section	.text.uECC_decompress,"ax",%progbits
	.align	1
	.global	uECC_decompress
	.syntax unified
	.thumb
	.thumb_func
	.fpu fpv4-sp-d16
	.type	uECC_decompress, %function
uECC_decompress:
.LVL754:
.LFB61:
	.loc 2 1098 88 is_stmt 1 view -0
	@ args = 0, pretend = 0, frame = 64
	@ frame_needed = 0, uses_anonymous_args = 0
	.loc 2 1102 5 view .LVU1828
	.loc 2 1104 5 view .LVU1829
	.loc 2 1098 88 is_stmt 0 view .LVU1830
	push	{r4, r5, r6, r7, r8, lr}
.LCFI125:
	.loc 2 1104 28 view .LVU1831
	ldrsb	r8, [r2]
	.loc 2 1098 88 view .LVU1832
	sub	sp, sp, #64
.LCFI126:
	.loc 2 1098 88 view .LVU1833
	mov	r4, r2
	mov	r7, r0
	.loc 2 1108 5 view .LVU1834
	ldrsb	r2, [r2, #1]
.LVL755:
	.loc 2 1104 18 view .LVU1835
	add	r5, sp, r8, lsl #2
.LVL756:
	.loc 2 1108 5 is_stmt 1 view .LVU1836
	.loc 2 1098 88 is_stmt 0 view .LVU1837
	mov	r6, r1
	.loc 2 1108 5 view .LVU1838
	adds	r1, r0, #1
.LVL757:
	.loc 2 1108 5 view .LVU1839
	mov	r0, sp
.LVL758:
	.loc 2 1108 5 view .LVU1840
	bl	uECC_vli_bytesToNative
.LVL759:
	.loc 2 1110 5 is_stmt 1 view .LVU1841
	mov	r2, r4
	ldr	r3, [r4, #172]
	mov	r1, sp
	mov	r0, r5
	blx	r3
.LVL760:
	.loc 2 1111 5 view .LVU1842
	ldr	r3, [r4, #168]
	mov	r1, r4
	mov	r0, r5
	blx	r3
.LVL761:
	.loc 2 1113 5 view .LVU1843
	.loc 2 1113 41 is_stmt 0 view .LVU1844
	ldrb	r3, [r7]	@ zero_extendqisi2
	.loc 2 1113 23 view .LVU1845
	ldr	r2, [sp, r8, lsl #2]
	eors	r3, r3, r2
	.loc 2 1113 8 view .LVU1846
	lsls	r3, r3, #31
	bpl	.L277
	.loc 2 1114 9 is_stmt 1 view .LVU1847
	mov	r1, r4
	mov	r2, r5
	ldrsb	r3, [r1], #4
	mov	r0, r5
	bl	uECC_vli_sub
.LVL762:
.L277:
	.loc 2 1118 5 view .LVU1848
	ldrsb	r1, [r4, #1]
	mov	r2, sp
	mov	r0, r6
	bl	uECC_vli_nativeToBytes
.LVL763:
	.loc 2 1119 5 view .LVU1849
	.loc 2 1119 46 is_stmt 0 view .LVU1850
	ldrsb	r1, [r4, #1]
	.loc 2 1119 5 view .LVU1851
	mov	r2, r5
	adds	r0, r6, r1
	bl	uECC_vli_nativeToBytes
.LVL764:
	.loc 2 1121 1 view .LVU1852
	add	sp, sp, #64
.LCFI127:
	@ sp needed
	pop	{r4, r5, r6, r7, r8, pc}
	.loc 2 1121 1 view .LVU1853
.LFE61:
	.size	uECC_decompress, .-uECC_decompress
	.section	.text.uECC_valid_point,"ax",%progbits
	.align	1
	.global	uECC_valid_point
	.syntax unified
	.thumb
	.thumb_func
	.fpu fpv4-sp-d16
	.type	uECC_valid_point, %function
uECC_valid_point:
.LVL765:
.LFB62:
	.loc 2 1124 66 is_stmt 1 view -0
	@ args = 0, pretend = 0, frame = 72
	@ frame_needed = 0, uses_anonymous_args = 0
	.loc 2 1125 5 view .LVU1855
	.loc 2 1126 5 view .LVU1856
	.loc 2 1127 5 view .LVU1857
	.loc 2 1124 66 is_stmt 0 view .LVU1858
	push	{r4, r5, r6, r7, r8, lr}
.LCFI128:
	.loc 2 1130 9 view .LVU1859
	ldrb	r5, [r1]	@ zero_extendqisi2
	.loc 2 1127 17 view .LVU1860
	ldrsb	r2, [r1]
	.loc 2 1124 66 view .LVU1861
	sub	sp, sp, #72
.LCFI129:
	.loc 2 1124 66 view .LVU1862
	mov	r6, r1
	.loc 2 1130 9 view .LVU1863
	lsls	r1, r5, #1
.LVL766:
	.loc 2 1130 9 view .LVU1864
	sxtb	r1, r1
	.loc 2 1124 66 view .LVU1865
	mov	r7, r0
	.loc 2 1127 17 view .LVU1866
	str	r2, [sp, #4]
.LVL767:
	.loc 2 1130 5 is_stmt 1 view .LVU1867
	.loc 2 1130 9 is_stmt 0 view .LVU1868
	bl	uECC_vli_isZero
.LVL768:
	.loc 2 1130 8 view .LVU1869
	mov	r4, r0
	cbnz	r0, .L285
	.loc 2 1135 5 is_stmt 1 view .LVU1870
	.loc 2 1135 34 is_stmt 0 view .LVU1871
	add	r8, r6, #4
	.loc 2 1135 9 view .LVU1872
	ldr	r2, [sp, #4]
	mov	r1, r7
	mov	r0, r8
	bl	uECC_vli_cmp_unsafe
.LVL769:
	.loc 2 1135 8 view .LVU1873
	cmp	r0, #1
	bne	.L281
	.loc 2 1136 13 discriminator 1 view .LVU1874
	ldr	r2, [sp, #4]
	mov	r0, r8
	add	r1, r7, r2, lsl #2
	bl	uECC_vli_cmp_unsafe
.LVL770:
	.loc 2 1135 62 discriminator 1 view .LVU1875
	cmp	r0, #1
	bne	.L281
	.loc 2 1140 5 is_stmt 1 view .LVU1876
	mov	r2, r6
	add	r0, sp, #8
	.loc 2 1141 5 is_stmt 0 view .LVU1877
	add	r8, sp, #40
	.loc 2 1140 5 view .LVU1878
	bl	uECC_vli_modSquare_fast
.LVL771:
	.loc 2 1141 5 is_stmt 1 view .LVU1879
	ldr	r3, [r6, #172]
	mov	r2, r6
	mov	r1, r7
	mov	r0, r8
	blx	r3
.LVL772:
	.loc 2 1144 5 view .LVU1880
.LBB107:
.LBI107:
	.loc 2 293 26 view .LVU1881
.LBB108:
	.loc 2 296 5 view .LVU1882
	.loc 2 297 5 view .LVU1883
	.loc 2 298 5 view .LVU1884
	.loc 2 298 24 is_stmt 0 view .LVU1885
	subs	r3, r5, #1
	sxtb	r3, r3
.LVL773:
.L283:
	.loc 2 298 29 is_stmt 1 view .LVU1886
	.loc 2 298 5 is_stmt 0 view .LVU1887
	lsls	r2, r3, #24
	bpl	.L284
	.loc 2 301 5 is_stmt 1 view .LVU1888
.LVL774:
	.loc 2 301 18 is_stmt 0 view .LVU1889
	clz	r4, r4
	lsrs	r4, r4, #5
.L281:
.LBE108:
.LBE107:
	.loc 2 1145 1 view .LVU1890
	mov	r0, r4
	add	sp, sp, #72
.LCFI130:
	@ sp needed
	pop	{r4, r5, r6, r7, r8, pc}
.LVL775:
.L284:
.LCFI131:
.LBB110:
.LBB109:
	.loc 2 299 9 is_stmt 1 view .LVU1891
	.loc 2 299 26 is_stmt 0 view .LVU1892
	add	r2, sp, #8
.LVL776:
	.loc 2 299 26 view .LVU1893
	ldr	r1, [r8, r3, lsl #2]
	ldr	r2, [r2, r3, lsl #2]
.LVL777:
	.loc 2 299 26 view .LVU1894
	eors	r2, r2, r1
	.loc 2 299 14 view .LVU1895
	orrs	r4, r4, r2
.LVL778:
	.loc 2 298 37 is_stmt 1 view .LVU1896
	.loc 2 298 37 is_stmt 0 view .LVU1897
	subs	r3, r3, #1
.LVL779:
	.loc 2 298 37 view .LVU1898
	b	.L283
.LVL780:
.L285:
	.loc 2 298 37 view .LVU1899
.LBE109:
.LBE110:
	.loc 2 1131 16 view .LVU1900
	movs	r4, #0
	b	.L281
.LFE62:
	.size	uECC_valid_point, .-uECC_valid_point
	.section	.text.uECC_valid_public_key,"ax",%progbits
	.align	1
	.global	uECC_valid_public_key
	.syntax unified
	.thumb
	.thumb_func
	.fpu fpv4-sp-d16
	.type	uECC_valid_public_key, %function
uECC_valid_public_key:
.LVL781:
.LFB63:
	.loc 2 1147 72 is_stmt 1 view -0
	@ args = 0, pretend = 0, frame = 64
	@ frame_needed = 0, uses_anonymous_args = 0
	.loc 2 1151 5 view .LVU1902
	.loc 2 1155 5 view .LVU1903
	.loc 2 1147 72 is_stmt 0 view .LVU1904
	push	{r4, r5, lr}
.LCFI132:
	mov	r4, r1
	sub	sp, sp, #68
.LCFI133:
	.loc 2 1155 5 view .LVU1905
	ldrsb	r2, [r1, #1]
	.loc 2 1147 72 view .LVU1906
	mov	r5, r0
	.loc 2 1155 5 view .LVU1907
	mov	r1, r0
.LVL782:
	.loc 2 1155 5 view .LVU1908
	mov	r0, sp
.LVL783:
	.loc 2 1155 5 view .LVU1909
	bl	uECC_vli_bytesToNative
.LVL784:
	.loc 2 1156 5 is_stmt 1 view .LVU1910
	.loc 2 1157 54 is_stmt 0 view .LVU1911
	ldrsb	r2, [r4, #1]
	.loc 2 1157 16 view .LVU1912
	ldrsb	r0, [r4]
	.loc 2 1156 5 view .LVU1913
	adds	r1, r5, r2
	add	r0, sp, r0, lsl #2
	bl	uECC_vli_bytesToNative
.LVL785:
	.loc 2 1159 5 is_stmt 1 view .LVU1914
	.loc 2 1159 12 is_stmt 0 view .LVU1915
	mov	r1, r4
	mov	r0, sp
	bl	uECC_valid_point
.LVL786:
	.loc 2 1160 1 view .LVU1916
	add	sp, sp, #68
.LCFI134:
	@ sp needed
	pop	{r4, r5, pc}
	.loc 2 1160 1 view .LVU1917
.LFE63:
	.size	uECC_valid_public_key, .-uECC_valid_public_key
	.section	.text.uECC_compute_public_key,"ax",%progbits
	.align	1
	.global	uECC_compute_public_key
	.syntax unified
	.thumb
	.thumb_func
	.fpu fpv4-sp-d16
	.type	uECC_compute_public_key, %function
uECC_compute_public_key:
.LVL787:
.LFB64:
	.loc 2 1162 96 is_stmt 1 view -0
	@ args = 0, pretend = 0, frame = 96
	@ frame_needed = 0, uses_anonymous_args = 0
	.loc 2 1167 5 view .LVU1919
	.loc 2 1168 5 view .LVU1920
	.loc 2 1172 5 view .LVU1921
	.loc 2 1162 96 is_stmt 0 view .LVU1922
	push	{r4, r5, r6, lr}
.LCFI135:
	.loc 2 1172 50 view .LVU1923
	ldrsh	r3, [r2, #2]
	.loc 2 1162 96 view .LVU1924
	mov	r4, r2
	.loc 2 1172 5 view .LVU1925
	adds	r2, r3, #7
.LVL788:
	.loc 2 1172 5 view .LVU1926
	it	mi
	addmi	r2, r3, #14
	.loc 2 1162 96 view .LVU1927
	sub	sp, sp, #96
.LCFI136:
	.loc 2 1172 5 view .LVU1928
	asrs	r2, r2, #3
	.loc 2 1162 96 view .LVU1929
	mov	r6, r1
	.loc 2 1172 5 view .LVU1930
	mov	r1, r0
.LVL789:
	.loc 2 1172 5 view .LVU1931
	mov	r0, sp
.LVL790:
	.loc 2 1172 5 view .LVU1932
	bl	uECC_vli_bytesToNative
.LVL791:
	.loc 2 1176 5 is_stmt 1 view .LVU1933
	.loc 2 1176 34 is_stmt 0 view .LVU1934
	ldrsh	r3, [r4, #2]
	adds	r2, r3, #31
	it	mi
	addmi	r2, r3, #62
	.loc 2 1176 9 view .LVU1935
	sbfx	r1, r2, #5, #8
	mov	r0, sp
	bl	uECC_vli_isZero
.LVL792:
	.loc 2 1176 8 view .LVU1936
	cbz	r0, .L292
.L294:
	.loc 2 1177 16 view .LVU1937
	movs	r0, #0
.L289:
	.loc 2 1195 1 view .LVU1938
	add	sp, sp, #96
.LCFI137:
	@ sp needed
	pop	{r4, r5, r6, pc}
.LVL793:
.L292:
.LCFI138:
	.loc 2 1180 5 is_stmt 1 view .LVU1939
	.loc 2 1180 9 is_stmt 0 view .LVU1940
	mov	r2, r1
	add	r0, r4, #36
	mov	r1, sp
	bl	uECC_vli_cmp
.LVL794:
	.loc 2 1180 8 view .LVU1941
	cmp	r0, #1
	.loc 2 1180 9 view .LVU1942
	mov	r5, r0
	.loc 2 1180 8 view .LVU1943
	bne	.L294
	.loc 2 1185 5 is_stmt 1 view .LVU1944
	.loc 2 1185 10 is_stmt 0 view .LVU1945
	mov	r2, r4
	mov	r1, sp
	add	r0, sp, #32
	bl	EccPoint_compute_public_key
.LVL795:
	.loc 2 1185 8 view .LVU1946
	cmp	r0, #0
	beq	.L294
	.loc 2 1190 5 is_stmt 1 view .LVU1947
	ldrsb	r1, [r4, #1]
	add	r2, sp, #32
	mov	r0, r6
	bl	uECC_vli_nativeToBytes
.LVL796:
	.loc 2 1191 5 view .LVU1948
	.loc 2 1192 27 is_stmt 0 view .LVU1949
	ldrsb	r1, [r4, #1]
	.loc 2 1192 65 view .LVU1950
	ldrsb	r2, [r4]
	.loc 2 1191 5 view .LVU1951
	add	r3, sp, #32
	adds	r0, r6, r1
	add	r2, r3, r2, lsl #2
	bl	uECC_vli_nativeToBytes
.LVL797:
	.loc 2 1194 5 is_stmt 1 view .LVU1952
	.loc 2 1194 12 is_stmt 0 view .LVU1953
	mov	r0, r5
	b	.L289
.LFE64:
	.size	uECC_compute_public_key, .-uECC_compute_public_key
	.section	.text.uECC_sign,"ax",%progbits
	.align	1
	.global	uECC_sign
	.syntax unified
	.thumb
	.thumb_func
	.fpu fpv4-sp-d16
	.type	uECC_sign, %function
uECC_sign:
.LVL798:
.LFB67:
	.loc 2 1316 33 is_stmt 1 view -0
	@ args = 4, pretend = 0, frame = 32
	@ frame_needed = 0, uses_anonymous_args = 0
	.loc 2 1317 5 view .LVU1955
	.loc 2 1318 5 view .LVU1956
	.loc 2 1320 5 view .LVU1957
	.loc 2 1320 21 view .LVU1958
	.loc 2 1316 33 is_stmt 0 view .LVU1959
	push	{r4, r5, r6, r7, r8, r9, r10, lr}
.LCFI139:
	sub	sp, sp, #40
.LCFI140:
	.loc 2 1316 33 view .LVU1960
	mov	r5, r0
	ldr	r9, [sp, #72]
	mov	r6, r1
	mov	r7, r2
	mov	r8, r3
	movs	r4, #64
	.loc 2 1321 47 view .LVU1961
	add	r10, r9, #36
.LVL799:
.L302:
	.loc 2 1321 9 is_stmt 1 view .LVU1962
	.loc 2 1321 52 is_stmt 0 view .LVU1963
	ldrsh	r3, [r9, #2]
	adds	r2, r3, #31
	it	mi
	addmi	r2, r3, #62
	.loc 2 1321 14 view .LVU1964
	sbfx	r2, r2, #5, #8
	mov	r1, r10
	add	r0, sp, #8
	bl	uECC_generate_random_int
.LVL800:
	.loc 2 1321 12 view .LVU1965
	cbz	r0, .L300
	.loc 2 1325 9 is_stmt 1 view .LVU1966
	.loc 2 1325 13 is_stmt 0 view .LVU1967
	strd	r8, r9, [sp]
	add	r3, sp, #8
	mov	r2, r7
	mov	r1, r6
	mov	r0, r5
	bl	uECC_sign_with_k
.LVL801:
	.loc 2 1325 12 view .LVU1968
	cbnz	r0, .L303
	.loc 2 1320 49 is_stmt 1 discriminator 2 view .LVU1969
.LVL802:
	.loc 2 1320 21 discriminator 2 view .LVU1970
	.loc 2 1320 5 is_stmt 0 discriminator 2 view .LVU1971
	subs	r4, r4, #1
.LVL803:
	.loc 2 1320 5 discriminator 2 view .LVU1972
	bne	.L302
.LVL804:
.L300:
	.loc 2 1322 20 view .LVU1973
	movs	r0, #0
.L298:
	.loc 2 1330 1 view .LVU1974
	add	sp, sp, #40
.LCFI141:
	@ sp needed
	pop	{r4, r5, r6, r7, r8, r9, r10, pc}
.LVL805:
.L303:
.LCFI142:
	.loc 2 1326 20 view .LVU1975
	movs	r0, #1
	b	.L298
.LFE67:
	.size	uECC_sign, .-uECC_sign
	.section	.text.uECC_sign_deterministic,"ax",%progbits
	.align	1
	.global	uECC_sign_deterministic
	.syntax unified
	.thumb
	.thumb_func
	.fpu fpv4-sp-d16
	.type	uECC_sign_deterministic, %function
uECC_sign_deterministic:
.LVL806:
.LFB72:
	.loc 2 1388 47 is_stmt 1 view -0
	@ args = 8, pretend = 0, frame = 56
	@ frame_needed = 0, uses_anonymous_args = 0
	.loc 2 1389 5 view .LVU1977
	.loc 2 1388 47 is_stmt 0 view .LVU1978
	push	{r4, r5, r6, r7, r8, r9, r10, fp, lr}
.LCFI143:
	sub	sp, sp, #68
.LCFI144:
	.loc 2 1388 47 view .LVU1979
	mov	fp, r2
	.loc 2 1392 31 view .LVU1980
	ldr	r2, [sp, #108]
.LVL807:
	.loc 2 1392 31 view .LVU1981
	ldrsh	r8, [r2, #2]
	.loc 2 1390 14 view .LVU1982
	ldrd	r6, r5, [r3, #16]
	.loc 2 1388 47 view .LVU1983
	mov	r4, r3
	.loc 2 1391 17 view .LVU1984
	ldr	r3, [sp, #108]
.LVL808:
	.loc 2 1392 31 view .LVU1985
	adds	r7, r8, #31
	it	mi
	addmi	r7, r8, #62
	.loc 2 1396 12 view .LVU1986
	movs	r2, #0
	.loc 2 1391 17 view .LVU1987
	ldrsb	r3, [r3, #1]
	.loc 2 1388 47 view .LVU1988
	mov	r9, r0
	mov	r10, r1
	.loc 2 1390 14 view .LVU1989
	add	r6, r6, r5
.LVL809:
	.loc 2 1391 5 is_stmt 1 view .LVU1990
	.loc 2 1392 5 view .LVU1991
	.loc 2 1392 17 is_stmt 0 view .LVU1992
	sbfx	r7, r7, #5, #8
.LVL810:
	.loc 2 1393 5 is_stmt 1 view .LVU1993
	.loc 2 1394 5 view .LVU1994
	.loc 2 1395 5 view .LVU1995
	.loc 2 1396 5 view .LVU1996
	.loc 2 1397 14 is_stmt 0 view .LVU1997
	movs	r0, #1
.LVL811:
	.loc 2 1398 14 view .LVU1998
	mov	ip, r2
.LVL812:
.L310:
	.loc 2 1396 17 is_stmt 1 discriminator 1 view .LVU1999
	.loc 2 1396 5 is_stmt 0 discriminator 1 view .LVU2000
	ldr	r1, [r4, #16]
	cmp	r1, r2
	bhi	.L311
	.loc 2 1402 5 view .LVU2001
	mov	r1, r5
	mov	r0, r4
	str	r3, [sp, #12]
	.loc 2 1402 5 is_stmt 1 view .LVU2002
	bl	HMAC_init
.LVL813:
	.loc 2 1403 5 view .LVU2003
	.loc 2 1403 34 is_stmt 0 view .LVU2004
	ldr	r2, [r4, #16]
	movs	r1, #0
	strb	r1, [r6, r2]
	.loc 2 1404 5 is_stmt 1 view .LVU2005
	ldr	r2, [r4, #16]
	mov	r1, r6
	adds	r2, r2, #1
	mov	r0, r4
	bl	HMAC_update
.LVL814:
	.loc 2 1405 5 view .LVU2006
	ldr	r3, [sp, #12]
	mov	r1, r9
	mov	r2, r3
	mov	r0, r4
	bl	HMAC_update
.LVL815:
	.loc 2 1406 5 view .LVU2007
	mov	r2, fp
	mov	r1, r10
	mov	r0, r4
	bl	HMAC_update
.LVL816:
	.loc 2 1407 5 view .LVU2008
	mov	r2, r5
	mov	r1, r5
	mov	r0, r4
	bl	HMAC_finish
.LVL817:
	.loc 2 1409 5 view .LVU2009
	mov	r2, r6
	mov	r1, r5
	mov	r0, r4
	bl	update_V
.LVL818:
	.loc 2 1412 5 view .LVU2010
	mov	r1, r5
	mov	r0, r4
	bl	HMAC_init
.LVL819:
	.loc 2 1413 5 view .LVU2011
	.loc 2 1413 34 is_stmt 0 view .LVU2012
	ldr	r2, [r4, #16]
	movs	r1, #1
	strb	r1, [r6, r2]
	.loc 2 1414 5 is_stmt 1 view .LVU2013
	ldr	r2, [r4, #16]
	mov	r0, r4
	add	r2, r2, r1
	mov	r1, r6
	bl	HMAC_update
.LVL820:
	.loc 2 1415 5 view .LVU2014
	ldr	r3, [sp, #12]
	mov	r1, r9
	mov	r2, r3
	mov	r0, r4
	bl	HMAC_update
.LVL821:
	.loc 2 1416 5 view .LVU2015
	mov	r2, fp
	mov	r1, r10
	mov	r0, r4
	bl	HMAC_update
.LVL822:
	.loc 2 1417 5 view .LVU2016
	mov	r2, r5
	mov	r1, r5
	mov	r0, r4
	bl	HMAC_finish
.LVL823:
	.loc 2 1419 5 view .LVU2017
	mov	r2, r6
	mov	r1, r5
	mov	r0, r4
	bl	update_V
.LVL824:
	.loc 2 1421 5 view .LVU2018
	.loc 2 1421 21 view .LVU2019
.LBB111:
	.loc 2 1429 44 is_stmt 0 view .LVU2020
	lsls	r3, r7, #2
	str	r3, [sp, #16]
	.loc 2 1435 54 view .LVU2021
	lsls	r3, r7, #5
	str	r3, [sp, #20]
.LBB112:
	.loc 2 1438 72 view .LVU2022
	rsb	r3, r8, r7, lsl #5
	.loc 2 1438 22 view .LVU2023
	mov	r2, #-1
	.loc 2 1438 26 view .LVU2024
	sxth	r3, r3
	.loc 2 1438 22 view .LVU2025
	lsr	r3, r2, r3
	str	r3, [sp, #24]
	movs	r3, #64
	str	r3, [sp, #12]
.LVL825:
	.loc 2 1437 32 view .LVU2026
	add	r7, r7, r2
.LVL826:
	.loc 2 1437 32 view .LVU2027
	add	r3, sp, r3
	add	r7, r3, r7, lsl #2
.LVL827:
.L319:
	.loc 2 1437 32 view .LVU2028
.LBE112:
	.loc 2 1424 21 view .LVU2029
	movs	r3, #0
.L316:
	.loc 2 1426 13 view .LVU2030
	mov	r2, r6
	mov	r1, r5
	mov	r0, r4
	str	r3, [sp, #28]
.LVL828:
	.loc 2 1425 9 is_stmt 1 view .LVU2031
	.loc 2 1426 13 view .LVU2032
	bl	update_V
.LVL829:
	.loc 2 1427 13 view .LVU2033
	.loc 2 1427 13 is_stmt 0 view .LVU2034
	ldr	r0, [r4, #16]
	ldr	r3, [sp, #28]
	mov	r1, r6
	add	r0, r0, r6
	mov	r2, r3
.LVL830:
.L312:
	.loc 2 1427 25 is_stmt 1 discriminator 1 view .LVU2035
	add	r3, sp, #32
	add	ip, r3, r2
	.loc 2 1427 13 is_stmt 0 discriminator 1 view .LVU2036
	cmp	r0, r1
	mov	r3, r2
	add	r2, r2, #1
.LVL831:
	.loc 2 1427 13 discriminator 1 view .LVU2037
	sxtb	r2, r2
	beq	.L316
	.loc 2 1428 17 is_stmt 1 view .LVU2038
.LVL832:
	.loc 2 1428 37 is_stmt 0 view .LVU2039
	ldrb	r3, [r1], #1	@ zero_extendqisi2
.LVL833:
	.loc 2 1428 34 view .LVU2040
	strb	r3, [ip]
	.loc 2 1429 17 is_stmt 1 view .LVU2041
	.loc 2 1429 20 is_stmt 0 view .LVU2042
	ldr	r3, [sp, #16]
	cmp	r3, r2
	bgt	.L312
	.loc 2 1430 21 is_stmt 1 view .LVU2043
.LDL1:
	.loc 2 1435 9 view .LVU2044
	.loc 2 1435 12 is_stmt 0 view .LVU2045
	ldr	r3, [sp, #20]
	cmp	r8, r3
	blt	.L313
.L314:
	.loc 2 1441 9 is_stmt 1 view .LVU2046
	.loc 2 1441 13 is_stmt 0 view .LVU2047
	ldr	r3, [sp, #108]
	str	r3, [sp, #4]
	ldr	r3, [sp, #104]
	str	r3, [sp]
	mov	r2, fp
	add	r3, sp, #32
	mov	r1, r10
	mov	r0, r9
	bl	uECC_sign_with_k
.LVL834:
	.loc 2 1441 12 view .LVU2048
	cbz	r0, .L317
	.loc 2 1442 13 is_stmt 1 view .LVU2049
	.loc 2 1442 20 is_stmt 0 view .LVU2050
	movs	r3, #1
.LVL835:
.L308:
	.loc 2 1442 20 view .LVU2051
.LBE111:
	.loc 2 1454 1 view .LVU2052
	mov	r0, r3
	add	sp, sp, #68
.LCFI145:
	@ sp needed
	pop	{r4, r5, r6, r7, r8, r9, r10, fp, pc}
.LVL836:
.L311:
.LCFI146:
	.loc 2 1397 9 is_stmt 1 discriminator 3 view .LVU2053
	.loc 2 1397 14 is_stmt 0 discriminator 3 view .LVU2054
	strb	r0, [r6, r2]
	.loc 2 1398 9 is_stmt 1 discriminator 3 view .LVU2055
	.loc 2 1398 14 is_stmt 0 discriminator 3 view .LVU2056
	strb	ip, [r5, r2]
	.loc 2 1396 48 is_stmt 1 discriminator 3 view .LVU2057
	adds	r2, r2, #1
.LVL837:
	.loc 2 1396 48 is_stmt 0 discriminator 3 view .LVU2058
	b	.L310
.LVL838:
.L313:
.LBB114:
.LBB113:
	.loc 2 1436 13 is_stmt 1 view .LVU2059
	.loc 2 1437 13 view .LVU2060
	.loc 2 1437 32 is_stmt 0 view .LVU2061
	ldr	r3, [r7, #-32]
	ldr	r2, [sp, #24]
	ands	r3, r3, r2
	str	r3, [r7, #-32]
	b	.L314
.LVL839:
.L317:
	.loc 2 1437 32 view .LVU2062
	str	r0, [sp, #28]
.LBE113:
	.loc 2 1446 9 is_stmt 1 view .LVU2063
	mov	r1, r5
	mov	r0, r4
	bl	HMAC_init
.LVL840:
	.loc 2 1447 9 view .LVU2064
	.loc 2 1447 38 is_stmt 0 view .LVU2065
	ldr	r2, [r4, #16]
	ldr	r3, [sp, #28]
	strb	r3, [r6, r2]
	.loc 2 1448 9 is_stmt 1 view .LVU2066
	ldr	r2, [r4, #16]
	mov	r1, r6
	adds	r2, r2, #1
	mov	r0, r4
	bl	HMAC_update
.LVL841:
	.loc 2 1449 9 view .LVU2067
	mov	r2, r5
	mov	r1, r5
	mov	r0, r4
	bl	HMAC_finish
.LVL842:
	.loc 2 1451 9 view .LVU2068
	mov	r2, r6
	mov	r1, r5
	mov	r0, r4
	bl	update_V
.LVL843:
.LBE114:
	.loc 2 1421 49 view .LVU2069
	.loc 2 1421 21 view .LVU2070
	.loc 2 1421 5 is_stmt 0 view .LVU2071
	ldr	r3, [sp, #12]
	subs	r3, r3, #1
	str	r3, [sp, #12]
.LVL844:
	.loc 2 1421 5 view .LVU2072
	ldr	r3, [sp, #28]
.LVL845:
	.loc 2 1421 5 view .LVU2073
	bne	.L319
	b	.L308
.LFE72:
	.size	uECC_sign_deterministic, .-uECC_sign_deterministic
	.section	.text.uECC_verify,"ax",%progbits
	.align	1
	.global	uECC_verify
	.syntax unified
	.thumb
	.thumb_func
	.fpu fpv4-sp-d16
	.type	uECC_verify, %function
uECC_verify:
.LVL846:
.LFB74:
	.loc 2 1464 35 is_stmt 1 view -0
	@ args = 4, pretend = 0, frame = 480
	@ frame_needed = 0, uses_anonymous_args = 0
	.loc 2 1465 5 view .LVU2075
	.loc 2 1466 5 view .LVU2076
	.loc 2 1467 5 view .LVU2077
	.loc 2 1468 5 view .LVU2078
	.loc 2 1469 5 view .LVU2079
	.loc 2 1470 5 view .LVU2080
	.loc 2 1471 5 view .LVU2081
	.loc 2 1472 5 view .LVU2082
	.loc 2 1473 5 view .LVU2083
	.loc 2 1474 5 view .LVU2084
	.loc 2 1475 5 view .LVU2085
	.loc 2 1476 5 view .LVU2086
	.loc 2 1480 5 view .LVU2087
	.loc 2 1482 5 view .LVU2088
	.loc 2 1483 5 view .LVU2089
	.loc 2 1464 35 is_stmt 0 view .LVU2090
	push	{r4, r5, r6, r7, r8, r9, r10, fp, lr}
.LCFI147:
	vpush.64	{d8}
.LCFI148:
	sub	sp, sp, #492
.LCFI149:
	.loc 2 1464 35 view .LVU2091
	mov	r6, r3
	ldr	r5, [sp, #536]
	.loc 2 1484 31 view .LVU2092
	ldrsh	r3, [r5, #2]
.LVL847:
	.loc 2 1483 17 view .LVU2093
	ldrsb	r4, [r5]
.LVL848:
	.loc 2 1484 5 is_stmt 1 view .LVU2094
	.loc 2 1464 35 is_stmt 0 view .LVU2095
	mov	r9, r2
	.loc 2 1484 31 view .LVU2096
	adds	r2, r3, #31
.LVL849:
	.loc 2 1484 31 view .LVU2097
	it	mi
	addmi	r2, r3, #62
	.loc 2 1484 17 view .LVU2098
	sbfx	fp, r2, #5, #8
.LVL850:
	.loc 2 1486 5 is_stmt 1 view .LVU2099
	.loc 2 1486 20 is_stmt 0 view .LVU2100
	add	r10, fp, #-1
	.loc 2 1486 25 view .LVU2101
	add	r2, sp, #136
	movs	r3, #0
	str	r3, [r2, r10, lsl #2]
	.loc 2 1487 5 is_stmt 1 view .LVU2102
	.loc 2 1487 24 is_stmt 0 view .LVU2103
	add	r2, sp, #488
	add	r2, r2, r10, lsl #2
	.loc 2 1464 35 view .LVU2104
	vmov	s14, r1	@ int
	.loc 2 1487 24 view .LVU2105
	str	r3, [r2, #-192]
	.loc 2 1488 5 is_stmt 1 view .LVU2106
	.loc 2 1494 5 view .LVU2107
	.loc 2 1488 24 is_stmt 0 view .LVU2108
	str	r3, [r2, #-160]
	.loc 2 1494 5 view .LVU2109
	mov	r1, r0
.LVL851:
	.loc 2 1494 5 view .LVU2110
	ldrsb	r2, [r5, #1]
	.loc 2 1464 35 view .LVU2111
	mov	r7, r0
	.loc 2 1494 5 view .LVU2112
	add	r0, sp, #424
.LVL852:
	.loc 2 1494 5 view .LVU2113
	bl	uECC_vli_bytesToNative
.LVL853:
	.loc 2 1495 5 is_stmt 1 view .LVU2114
	.loc 2 1496 16 is_stmt 0 view .LVU2115
	lsls	r3, r4, #2
	.loc 2 1496 47 view .LVU2116
	ldrsb	r2, [r5, #1]
	.loc 2 1496 16 view .LVU2117
	str	r3, [sp, #20]
	.loc 2 1495 5 view .LVU2118
	add	r3, sp, #424
	add	r3, r3, r4, lsl #2
	mov	r0, r3
	adds	r1, r7, r2
	vmov	s15, r3	@ int
	bl	uECC_vli_bytesToNative
.LVL854:
	.loc 2 1497 5 is_stmt 1 view .LVU2119
	mov	r1, r6
	ldrsb	r2, [r5, #1]
	add	r0, sp, #296
	bl	uECC_vli_bytesToNative
.LVL855:
	.loc 2 1498 5 view .LVU2120
	.loc 2 1498 48 is_stmt 0 view .LVU2121
	ldrsb	r2, [r5, #1]
	.loc 2 1498 5 view .LVU2122
	add	r0, sp, #328
	adds	r1, r6, r2
	bl	uECC_vli_bytesToNative
.LVL856:
	.loc 2 1502 5 is_stmt 1 view .LVU2123
	.loc 2 1502 9 is_stmt 0 view .LVU2124
	mov	r1, r4
	add	r0, sp, #296
	bl	uECC_vli_isZero
.LVL857:
	.loc 2 1502 8 view .LVU2125
	movs	r3, #0
	mov	r6, r0
.LVL858:
	.loc 2 1502 8 view .LVU2126
	cmp	r0, #0
	bne	.L333
	.loc 2 1502 42 discriminator 1 view .LVU2127
	add	r0, sp, #328
	bl	uECC_vli_isZero
.LVL859:
	.loc 2 1502 39 discriminator 1 view .LVU2128
	str	r0, [sp, #8]
	cmp	r0, #0
	bne	.L334
	.loc 2 1507 5 is_stmt 1 view .LVU2129
	.loc 2 1507 34 is_stmt 0 view .LVU2130
	add	r8, r5, #36
	.loc 2 1507 9 view .LVU2131
	mov	r2, fp
	add	r1, sp, #296
	mov	r0, r8
	bl	uECC_vli_cmp_unsafe
.LVL860:
	.loc 2 1507 8 view .LVU2132
	cmp	r0, #1
	bne	.L336
	.loc 2 1508 13 discriminator 1 view .LVU2133
	mov	r2, fp
	add	r1, sp, #328
	mov	r0, r8
	bl	uECC_vli_cmp_unsafe
.LVL861:
	.loc 2 1507 60 discriminator 1 view .LVU2134
	cmp	r0, #1
	.loc 2 1508 13 discriminator 1 view .LVU2135
	str	r0, [sp, #16]
	.loc 2 1507 60 discriminator 1 view .LVU2136
	bne	.L336
	.loc 2 1513 5 is_stmt 1 view .LVU2137
	add	r7, sp, #104
.LVL862:
	.loc 2 1513 5 is_stmt 0 view .LVU2138
	mov	r3, fp
	mov	r2, r8
	add	r1, sp, #328
	mov	r0, r7
	bl	uECC_vli_modInv
.LVL863:
	.loc 2 1514 5 is_stmt 1 view .LVU2139
	.loc 2 1514 25 is_stmt 0 view .LVU2140
	add	r6, sp, #40
	ldr	r3, [sp, #8]
	str	r3, [r6, r10, lsl #2]
	.loc 2 1515 5 is_stmt 1 view .LVU2141
	vmov	r1, s14	@ int
	mov	r2, r9
	mov	r0, r6
	mov	r3, r5
	bl	bits2int
.LVL864:
	.loc 2 1516 5 view .LVU2142
	mov	r1, r6
	mov	r0, r6
	mov	r3, r8
	mov	r2, r7
	str	fp, [sp]
	bl	uECC_vli_modMult
.LVL865:
	.loc 2 1517 5 view .LVU2143
	.loc 2 1520 5 is_stmt 0 view .LVU2144
	add	r10, sp, #360
	.loc 2 1517 5 view .LVU2145
	mov	r3, r8
	mov	r2, r7
	add	r1, sp, #296
	add	r0, sp, #72
	str	fp, [sp]
	bl	uECC_vli_modMult
.LVL866:
	.loc 2 1520 5 is_stmt 1 view .LVU2146
	mov	r2, r4
	mov	r0, r10
	add	r1, sp, #424
	bl	uECC_vli_set
.LVL867:
	.loc 2 1521 5 view .LVU2147
	lsls	r3, r4, #2
	add	r9, r10, r3
.LVL868:
	.loc 2 1521 5 is_stmt 0 view .LVU2148
	vmov	r1, s15	@ int
	mov	r0, r9
	bl	uECC_vli_set
.LVL869:
	.loc 2 1522 5 is_stmt 1 view .LVU2149
	.loc 2 1522 27 is_stmt 0 view .LVU2150
	add	r3, r5, #68
	.loc 2 1522 5 view .LVU2151
	mov	r1, r3
	add	r0, sp, #200
	str	r3, [sp, #12]
	bl	uECC_vli_set
.LVL870:
	.loc 2 1523 5 is_stmt 1 view .LVU2152
	ldr	r3, [sp, #12]
	lsls	r1, r4, #2
	adds	r1, r3, r1
	add	r0, sp, #232
	bl	uECC_vli_set
.LVL871:
	.loc 2 1524 5 view .LVU2153
	.loc 2 1524 38 is_stmt 0 view .LVU2154
	adds	r3, r5, #4
	vmov	s16, r3	@ int
	.loc 2 1524 5 view .LVU2155
	mov	r1, r10
	add	r2, sp, #200
	mov	r0, r7
	str	r4, [sp]
	bl	uECC_vli_modSub
.LVL872:
	.loc 2 1525 5 is_stmt 1 view .LVU2156
	mov	r3, r9
	mov	r2, r10
	add	r1, sp, #232
	add	r0, sp, #200
	str	r5, [sp]
	bl	XYcZ_add
.LVL873:
	.loc 2 1526 5 view .LVU2157
	vmov	r2, s16	@ int
	mov	r3, r4
	mov	r1, r7
	mov	r0, r7
	bl	uECC_vli_modInv
.LVL874:
	.loc 2 1527 5 view .LVU2158
	mov	r3, r5
	mov	r1, r9
	mov	r0, r10
	mov	r2, r7
	bl	apply_z
.LVL875:
	.loc 2 1530 5 view .LVU2159
	.loc 2 1530 15 is_stmt 0 view .LVU2160
	ldr	r2, [sp, #8]
	str	r2, [sp, #24]
	.loc 2 1531 5 is_stmt 1 view .LVU2161
	.loc 2 1531 15 is_stmt 0 view .LVU2162
	ldr	r2, [sp, #12]
	str	r2, [sp, #28]
	.loc 2 1532 5 is_stmt 1 view .LVU2163
	.loc 2 1534 5 view .LVU2164
	.loc 2 1534 16 is_stmt 0 view .LVU2165
	mov	r1, fp
	.loc 2 1532 15 view .LVU2166
	add	r2, sp, #424
	.loc 2 1534 16 view .LVU2167
	mov	r0, r6
	.loc 2 1533 15 view .LVU2168
	strd	r2, r10, [sp, #32]
	.loc 2 1534 16 view .LVU2169
	bl	uECC_vli_numBits
.LVL876:
	mov	r1, fp
	mov	r10, r0
	add	r0, sp, #72
	bl	uECC_vli_numBits
.LVL877:
.LBB120:
.LBI120:
	.loc 2 1456 19 is_stmt 1 view .LVU2170
.LBB121:
	.loc 2 1457 5 view .LVU2171
	.loc 2 1457 5 is_stmt 0 view .LVU2172
.LBE121:
.LBE120:
	.loc 2 1537 5 is_stmt 1 view .LVU2173
.LBB123:
.LBB122:
	.loc 2 1457 23 is_stmt 0 view .LVU2174
	cmp	r0, r10
	it	lt
	movlt	r0, r10
.LVL878:
	.loc 2 1457 23 view .LVU2175
.LBE122:
.LBE123:
	.loc 2 1537 53 view .LVU2176
	uxth	r9, r0
	add	r1, r9, #-1
	.loc 2 1537 23 view .LVU2177
	sxth	r1, r1
	mov	r0, r6
	str	r1, [sp, #12]
	bl	uECC_vli_testBit
.LVL879:
	.loc 2 1538 24 view .LVU2178
	ldr	r1, [sp, #12]
	.loc 2 1537 21 view .LVU2179
	subs	r6, r0, #0
	.loc 2 1538 24 view .LVU2180
	add	r0, sp, #72
	.loc 2 1537 21 view .LVU2181
	it	ne
	movne	r6, #1
	.loc 2 1538 24 view .LVU2182
	bl	uECC_vli_testBit
.LVL880:
	.loc 2 1538 60 view .LVU2183
	cmp	r0, #0
	ite	ne
	movne	r0, #2
	moveq	r0, #0
	.loc 2 1537 11 view .LVU2184
	add	r3, sp, #24
	.loc 2 1537 59 view .LVU2185
	orrs	r6, r6, r0
	.loc 2 1539 5 view .LVU2186
	mov	r2, r4
	.loc 2 1537 11 view .LVU2187
	ldr	r1, [r3, r6, lsl #2]
.LVL881:
	.loc 2 1539 5 is_stmt 1 view .LVU2188
	add	r0, sp, #136
	bl	uECC_vli_set
.LVL882:
	.loc 2 1540 5 view .LVU2189
	add	r10, sp, #168
	.loc 2 1540 5 is_stmt 0 view .LVU2190
	lsls	r3, r4, #2
	add	r1, r1, r3
.LVL883:
	.loc 2 1540 5 view .LVU2191
	mov	r0, r10
	bl	uECC_vli_set
.LVL884:
	.loc 2 1541 5 is_stmt 1 view .LVU2192
	mov	r1, r4
	mov	r0, r7
	bl	uECC_vli_clear
.LVL885:
	.loc 2 1542 5 view .LVU2193
	.loc 2 1542 10 is_stmt 0 view .LVU2194
	ldr	r3, [sp, #16]
	str	r3, [r7]
	.loc 2 1544 5 is_stmt 1 view .LVU2195
	.loc 2 1544 23 is_stmt 0 view .LVU2196
	sub	r9, r9, #2
	add	r3, sp, #136
	.loc 2 1544 12 view .LVU2197
	sxth	r9, r9
.LVL886:
	.loc 2 1544 12 view .LVU2198
	str	r3, [sp, #12]
.LVL887:
.L326:
	.loc 2 1544 28 is_stmt 1 discriminator 1 view .LVU2199
	.loc 2 1544 5 is_stmt 0 discriminator 1 view .LVU2200
	cmp	r9, #0
	bge	.L329
	.loc 2 1560 5 is_stmt 1 view .LVU2201
	vmov	r2, s16	@ int
	mov	r3, r4
	mov	r1, r7
	mov	r0, r7
	bl	uECC_vli_modInv
.LVL888:
	.loc 2 1561 5 view .LVU2202
	ldr	r0, [sp, #12]
	mov	r3, r5
	mov	r2, r7
	mov	r1, r10
	bl	apply_z
.LVL889:
	.loc 2 1564 5 view .LVU2203
	.loc 2 1564 9 is_stmt 0 view .LVU2204
	ldr	r1, [sp, #12]
	mov	r2, fp
	mov	r0, r8
	bl	uECC_vli_cmp_unsafe
.LVL890:
	.loc 2 1564 8 view .LVU2205
	cmp	r0, #1
	beq	.L330
	.loc 2 1565 9 is_stmt 1 view .LVU2206
	ldr	r1, [sp, #12]
	mov	r3, fp
	mov	r2, r8
	mov	r0, r1
	bl	uECC_vli_sub
.LVL891:
.L330:
	.loc 2 1569 5 view .LVU2207
.LBB124:
.LBI124:
	.loc 2 293 26 view .LVU2208
.LBB125:
	.loc 2 296 5 view .LVU2209
	.loc 2 297 5 view .LVU2210
	.loc 2 298 5 view .LVU2211
	.loc 2 298 24 is_stmt 0 view .LVU2212
	subs	r4, r4, #1
.LVL892:
	.loc 2 298 24 view .LVU2213
	sxtb	r4, r4
.LVL893:
	.loc 2 299 33 view .LVU2214
	add	r2, sp, #296
.LVL894:
.L331:
	.loc 2 298 29 is_stmt 1 view .LVU2215
	.loc 2 298 5 is_stmt 0 view .LVU2216
	lsls	r3, r4, #24
	bpl	.L332
	.loc 2 301 5 is_stmt 1 view .LVU2217
.LVL895:
	.loc 2 301 18 is_stmt 0 view .LVU2218
	ldr	r3, [sp, #8]
	clz	r0, r3
	lsrs	r0, r0, #5
.LVL896:
.L322:
	.loc 2 301 18 view .LVU2219
.LBE125:
.LBE124:
	.loc 2 1570 1 view .LVU2220
	add	sp, sp, #492
.LCFI150:
	@ sp needed
	vldm	sp!, {d8}
.LCFI151:
	pop	{r4, r5, r6, r7, r8, r9, r10, fp, pc}
.LVL897:
.L329:
.LCFI152:
.LBB127:
	.loc 2 1545 9 is_stmt 1 view .LVU2221
	.loc 2 1546 9 view .LVU2222
	mov	r3, r5
	mov	r2, r7
	ldr	r6, [r5, #164]
	ldr	r0, [sp, #12]
	mov	r1, r10
	blx	r6
.LVL898:
	.loc 2 1548 9 view .LVU2223
	.loc 2 1548 20 is_stmt 0 view .LVU2224
	mov	r1, r9
	add	r0, sp, #40
	bl	uECC_vli_testBit
.LVL899:
	.loc 2 1548 51 view .LVU2225
	mov	r1, r9
	.loc 2 1548 18 view .LVU2226
	subs	r6, r0, #0
	.loc 2 1548 51 view .LVU2227
	add	r0, sp, #72
	.loc 2 1548 18 view .LVU2228
	it	ne
	movne	r6, #1
	.loc 2 1548 51 view .LVU2229
	bl	uECC_vli_testBit
.LVL900:
	.loc 2 1548 76 view .LVU2230
	cmp	r0, #0
	ite	ne
	movne	r0, #2
	moveq	r0, #0
.LVL901:
	.loc 2 1549 9 is_stmt 1 view .LVU2231
	.loc 2 1548 45 is_stmt 0 view .LVU2232
	orrs	r6, r6, r0
.LVL902:
	.loc 2 1549 15 view .LVU2233
	add	r3, sp, #24
	ldr	r1, [r3, r6, lsl #2]
.LVL903:
	.loc 2 1550 9 is_stmt 1 view .LVU2234
	.loc 2 1550 12 is_stmt 0 view .LVU2235
	cbz	r1, .L328
	.loc 2 1551 13 is_stmt 1 view .LVU2236
	mov	r2, r4
	add	r0, sp, #200
	bl	uECC_vli_set
.LVL904:
	.loc 2 1552 13 view .LVU2237
	ldr	r3, [sp, #20]
	add	r0, sp, #232
	add	r1, r1, r3
.LVL905:
	.loc 2 1552 13 is_stmt 0 view .LVU2238
	bl	uECC_vli_set
.LVL906:
	.loc 2 1553 13 is_stmt 1 view .LVU2239
	mov	r3, r5
	mov	r2, r7
	add	r1, sp, #232
	add	r0, sp, #200
	bl	apply_z
.LVL907:
	.loc 2 1554 13 view .LVU2240
	vmov	r3, s16	@ int
	ldr	r1, [sp, #12]
	str	r4, [sp]
.LVL908:
	.loc 2 1554 13 is_stmt 0 view .LVU2241
	add	r2, sp, #200
	add	r0, sp, #264
	bl	uECC_vli_modSub
.LVL909:
	.loc 2 1555 13 is_stmt 1 view .LVU2242
	ldr	r2, [sp, #12]
	str	r5, [sp]
	mov	r3, r10
	add	r1, sp, #232
	add	r0, sp, #200
	bl	XYcZ_add
.LVL910:
	.loc 2 1556 13 view .LVU2243
	mov	r3, r5
	add	r2, sp, #264
	mov	r1, r7
	mov	r0, r7
	bl	uECC_vli_modMult_fast
.LVL911:
.L328:
	.loc 2 1556 13 is_stmt 0 view .LVU2244
.LBE127:
	.loc 2 1544 36 is_stmt 1 discriminator 2 view .LVU2245
	add	r9, r9, #-1
.LVL912:
	.loc 2 1544 36 is_stmt 0 discriminator 2 view .LVU2246
	sxth	r9, r9
.LVL913:
	.loc 2 1544 36 discriminator 2 view .LVU2247
	b	.L326
.LVL914:
.L332:
.LBB128:
.LBB126:
	.loc 2 299 9 is_stmt 1 view .LVU2248
	.loc 2 299 26 is_stmt 0 view .LVU2249
	ldr	r3, [sp, #12]
	ldr	r1, [r2, r4, lsl #2]
	ldr	r3, [r3, r4, lsl #2]
	eors	r3, r3, r1
	.loc 2 299 14 view .LVU2250
	ldr	r1, [sp, #8]
	orrs	r1, r1, r3
	str	r1, [sp, #8]
.LVL915:
	.loc 2 298 37 is_stmt 1 view .LVU2251
	.loc 2 298 37 is_stmt 0 view .LVU2252
	subs	r4, r4, #1
.LVL916:
	.loc 2 298 37 view .LVU2253
	b	.L331
.LVL917:
.L333:
	.loc 2 298 37 view .LVU2254
.LBE126:
.LBE128:
	.loc 2 1503 16 view .LVU2255
	mov	r0, r3
	b	.L322
.L334:
	mov	r0, r6
	b	.L322
.L336:
	ldr	r0, [sp, #8]
	b	.L322
.LFE74:
	.size	uECC_verify, .-uECC_verify
	.section	.data.g_rng_function,"aw"
	.align	2
	.set	.LANCHOR5,. + 0
	.type	g_rng_function, %object
	.size	g_rng_function, 4
g_rng_function:
	.word	default_RNG
	.section	.rodata.curve_secp160r1,"a"
	.align	2
	.set	.LANCHOR0,. + 0
	.type	curve_secp160r1, %object
	.size	curve_secp160r1, 180
curve_secp160r1:
	.byte	5
	.byte	20
	.short	161
	.word	2147483647
	.word	-1
	.word	-1
	.word	-1
	.word	-1
	.space	12
	.word	-898293161
	.word	-114839853
	.word	128200
	.word	0
	.word	0
	.word	1
	.space	8
	.word	332135554
	.word	1757645753
	.word	1180985737
	.word	-1896516824
	.word	1251390824
	.word	2059795250
	.word	69423415
	.word	1507641618
	.word	828937341
	.word	598091861
	.space	24
	.word	-983172539
	.word	-2116758355
	.word	1705834655
	.word	1421703819
	.word	479706876
	.space	12
	.word	double_jacobian_default
	.word	mod_sqrt_default
	.word	x_side_default
	.word	vli_mmod_fast_secp160r1
	.section	.rodata.curve_secp192r1,"a"
	.align	2
	.set	.LANCHOR1,. + 0
	.type	curve_secp192r1, %object
	.size	curve_secp192r1, 180
curve_secp192r1:
	.byte	6
	.byte	24
	.short	192
	.word	-1
	.word	-1
	.word	-2
	.word	-1
	.word	-1
	.word	-1
	.space	8
	.word	-1261295567
	.word	342608305
	.word	-1713440714
	.word	-1
	.word	-1
	.word	-1
	.space	8
	.word	-2097213422
	.word	-184612099
	.word	1134659584
	.word	2092900587
	.word	-1338994442
	.word	411936782
	.word	511264785
	.word	1945728929
	.word	1797574101
	.word	1661997549
	.word	-3614088
	.word	119090069
	.space	16
	.word	-1052329551
	.word	-21438740
	.word	1914974281
	.word	262662571
	.word	-442728217
	.word	1679885593
	.space	8
	.word	double_jacobian_default
	.word	mod_sqrt_default
	.word	x_side_default
	.word	vli_mmod_fast_secp192r1
	.section	.rodata.curve_secp224r1,"a"
	.align	2
	.set	.LANCHOR2,. + 0
	.type	curve_secp224r1, %object
	.size	curve_secp224r1, 180
curve_secp224r1:
	.byte	7
	.byte	28
	.short	224
	.word	1
	.word	0
	.word	0
	.word	-1
	.word	-1
	.word	-1
	.word	-1
	.space	4
	.word	1549543997
	.word	333261125
	.word	-524750786
	.word	-59742
	.word	-1
	.word	-1
	.word	-1
	.space	4
	.word	291249441
	.word	875725014
	.word	1455558946
	.word	1241760211
	.word	840143033
	.word	1807007615
	.word	-1223816003
	.word	-2063565260
	.word	1154843033
	.word	1510426468
	.word	-851216992
	.word	1277353958
	.word	-1242094597
	.word	-1120443512
	.space	8
	.word	592838580
	.word	655046979
	.word	-675292998
	.word	1346678967
	.word	-180276650
	.word	201634731
	.word	-1274738043
	.space	4
	.word	double_jacobian_default
	.word	mod_sqrt_secp224r1
	.word	x_side_default
	.word	vli_mmod_fast_secp224r1
	.section	.rodata.curve_secp256k1,"a"
	.align	2
	.set	.LANCHOR4,. + 0
	.type	curve_secp256k1, %object
	.size	curve_secp256k1, 180
curve_secp256k1:
	.byte	8
	.byte	32
	.short	256
	.word	-977
	.word	-2
	.word	-1
	.word	-1
	.word	-1
	.word	-1
	.word	-1
	.word	-1
	.word	-801750719
	.word	-1076732276
	.word	-1354194885
	.word	-1162945306
	.word	-2
	.word	-1
	.word	-1
	.word	-1
	.word	385357720
	.word	1509065051
	.word	768485593
	.word	43777243
	.word	-830010617
	.word	1436574357
	.word	-102974548
	.word	2042521214
	.word	-82783048
	.word	-1673015153
	.word	-1501211623
	.word	-48778168
	.word	235997352
	.word	1571093500
	.word	648266853
	.word	1211816567
	.word	7
	.word	0
	.word	0
	.word	0
	.word	0
	.word	0
	.word	0
	.word	0
	.word	double_jacobian_secp256k1
	.word	mod_sqrt_default
	.word	x_side_secp256k1
	.word	vli_mmod_fast_secp256k1
	.section	.rodata.curve_secp256r1,"a"
	.align	2
	.set	.LANCHOR3,. + 0
	.type	curve_secp256r1, %object
	.size	curve_secp256r1, 180
curve_secp256r1:
	.byte	8
	.byte	32
	.short	256
	.word	-1
	.word	-1
	.word	-1
	.word	0
	.word	0
	.word	0
	.word	1
	.word	-1
	.word	-60611247
	.word	-205927742
	.word	-1491624316
	.word	-1125713235
	.word	-1
	.word	-1
	.word	0
	.word	-1
	.word	-661077354
	.word	-190760635
	.word	770388896
	.word	1996717441
	.word	1671708914
	.word	-121837851
	.word	-517193145
	.word	1796723186
	.word	935285237
	.word	-877248408
	.word	1798397646
	.word	734933847
	.word	2081398294
	.word	-1897403574
	.word	-31817829
	.word	1340293858
	.word	668098635
	.word	1003371582
	.word	-866930442
	.word	1696401072
	.word	1989707452
	.word	-1276396203
	.word	-1439001625
	.word	1522939352
	.word	double_jacobian_default
	.word	mod_sqrt_default
	.word	x_side_default
	.word	vli_mmod_fast_secp256r1
	.section	.debug_frame,"",%progbits
.Lframe0:
	.4byte	.LECIE0-.LSCIE0
.LSCIE0:
	.4byte	0xffffffff
	.byte	0x3
	.ascii	"\000"
	.uleb128 0x1
	.sleb128 -4
	.uleb128 0xe
	.byte	0xc
	.uleb128 0xd
	.uleb128 0
	.align	2
.LECIE0:
.LSFDE0:
	.4byte	.LEFDE0-.LASFDE0
.LASFDE0:
	.4byte	.Lframe0
	.4byte	.LFB1
	.4byte	.LFE1-.LFB1
	.byte	0x4
	.4byte	.LCFI0-.LFB1
	.byte	0xe
	.uleb128 0x10
	.byte	0x84
	.uleb128 0x4
	.byte	0x85
	.uleb128 0x3
	.byte	0x86
	.uleb128 0x2
	.byte	0x8e
	.uleb128 0x1
	.align	2
.LEFDE0:
.LSFDE2:
	.4byte	.LEFDE2-.LASFDE2
.LASFDE2:
	.4byte	.Lframe0
	.4byte	.LFB2
	.4byte	.LFE2-.LFB2
	.byte	0x4
	.4byte	.LCFI1-.LFB2
	.byte	0xe
	.uleb128 0x10
	.byte	0x84
	.uleb128 0x4
	.byte	0x85
	.uleb128 0x3
	.byte	0x86
	.uleb128 0x2
	.byte	0x8e
	.uleb128 0x1
	.align	2
.LEFDE2:
.LSFDE4:
	.4byte	.LEFDE4-.LASFDE4
.LASFDE4:
	.4byte	.Lframe0
	.4byte	.LFB3
	.4byte	.LFE3-.LFB3
	.byte	0x4
	.4byte	.LCFI2-.LFB3
	.byte	0xe
	.uleb128 0x18
	.byte	0x84
	.uleb128 0x6
	.byte	0x85
	.uleb128 0x5
	.byte	0x86
	.uleb128 0x4
	.byte	0x87
	.uleb128 0x3
	.byte	0x88
	.uleb128 0x2
	.byte	0x8e
	.uleb128 0x1
	.align	2
.LEFDE4:
.LSFDE6:
	.4byte	.LEFDE6-.LASFDE6
.LASFDE6:
	.4byte	.Lframe0
	.4byte	.LFB8
	.4byte	.LFE8-.LFB8
	.byte	0x4
	.4byte	.LCFI3-.LFB8
	.byte	0xe
	.uleb128 0x8
	.byte	0x84
	.uleb128 0x2
	.byte	0x8e
	.uleb128 0x1
	.align	2
.LEFDE6:
.LSFDE8:
	.4byte	.LEFDE8-.LASFDE8
.LASFDE8:
	.4byte	.Lframe0
	.4byte	.LFB9
	.4byte	.LFE9-.LFB9
	.byte	0x4
	.4byte	.LCFI4-.LFB9
	.byte	0xe
	.uleb128 0x8
	.byte	0x84
	.uleb128 0x2
	.byte	0x8e
	.uleb128 0x1
	.align	2
.LEFDE8:
.LSFDE10:
	.4byte	.LEFDE10-.LASFDE10
.LASFDE10:
	.4byte	.Lframe0
	.4byte	.LFB10
	.4byte	.LFE10-.LFB10
	.align	2
.LEFDE10:
.LSFDE12:
	.4byte	.LEFDE12-.LASFDE12
.LASFDE12:
	.4byte	.Lframe0
	.4byte	.LFB12
	.4byte	.LFE12-.LFB12
	.byte	0x4
	.4byte	.LCFI5-.LFB12
	.byte	0xe
	.uleb128 0x8
	.byte	0x84
	.uleb128 0x2
	.byte	0x8e
	.uleb128 0x1
	.align	2
.LEFDE12:
.LSFDE14:
	.4byte	.LEFDE14-.LASFDE14
.LASFDE14:
	.4byte	.Lframe0
	.4byte	.LFB13
	.4byte	.LFE13-.LFB13
	.byte	0x4
	.4byte	.LCFI6-.LFB13
	.byte	0xe
	.uleb128 0x8
	.byte	0x84
	.uleb128 0x2
	.byte	0x8e
	.uleb128 0x1
	.align	2
.LEFDE14:
.LSFDE16:
	.4byte	.LEFDE16-.LASFDE16
.LASFDE16:
	.4byte	.Lframe0
	.4byte	.LFB14
	.4byte	.LFE14-.LFB14
	.byte	0x4
	.4byte	.LCFI7-.LFB14
	.byte	0xe
	.uleb128 0x8
	.byte	0x84
	.uleb128 0x2
	.byte	0x8e
	.uleb128 0x1
	.align	2
.LEFDE16:
.LSFDE18:
	.4byte	.LEFDE18-.LASFDE18
.LASFDE18:
	.4byte	.Lframe0
	.4byte	.LFB16
	.4byte	.LFE16-.LFB16
	.byte	0x4
	.4byte	.LCFI8-.LFB16
	.byte	0xe
	.uleb128 0xc
	.byte	0x84
	.uleb128 0x3
	.byte	0x85
	.uleb128 0x2
	.byte	0x8e
	.uleb128 0x1
	.byte	0x4
	.4byte	.LCFI9-.LCFI8
	.byte	0xe
	.uleb128 0x30
	.byte	0x4
	.4byte	.LCFI10-.LCFI9
	.byte	0xe
	.uleb128 0xc
	.align	2
.LEFDE18:
.LSFDE20:
	.4byte	.LEFDE20-.LASFDE20
.LASFDE20:
	.4byte	.Lframe0
	.4byte	.LFB17
	.4byte	.LFE17-.LFB17
	.align	2
.LEFDE20:
.LSFDE22:
	.4byte	.LEFDE22-.LASFDE22
.LASFDE22:
	.4byte	.Lframe0
	.4byte	.LFB18
	.4byte	.LFE18-.LFB18
	.byte	0x4
	.4byte	.LCFI11-.LFB18
	.byte	0xe
	.uleb128 0x18
	.byte	0x84
	.uleb128 0x3
	.byte	0x85
	.uleb128 0x2
	.byte	0x8e
	.uleb128 0x1
	.byte	0x4
	.4byte	.LCFI12-.LCFI11
	.byte	0xa
	.byte	0xe
	.uleb128 0xc
	.byte	0x4
	.4byte	.LCFI13-.LCFI12
	.byte	0xce
	.byte	0xc5
	.byte	0xc4
	.byte	0xe
	.uleb128 0
	.byte	0x4
	.4byte	.LCFI14-.LCFI13
	.byte	0xb
	.byte	0x4
	.4byte	.LCFI15-.LCFI14
	.byte	0xe
	.uleb128 0xc
	.align	2
.LEFDE22:
.LSFDE24:
	.4byte	.LEFDE24-.LASFDE24
.LASFDE24:
	.4byte	.Lframe0
	.4byte	.LFB19
	.4byte	.LFE19-.LFB19
	.byte	0x4
	.4byte	.LCFI16-.LFB19
	.byte	0xe
	.uleb128 0x18
	.byte	0x84
	.uleb128 0x3
	.byte	0x85
	.uleb128 0x2
	.byte	0x8e
	.uleb128 0x1
	.byte	0x4
	.4byte	.LCFI17-.LCFI16
	.byte	0xa
	.byte	0xe
	.uleb128 0xc
	.byte	0x4
	.4byte	.LCFI18-.LCFI17
	.byte	0xce
	.byte	0xc5
	.byte	0xc4
	.byte	0xe
	.uleb128 0
	.byte	0x4
	.4byte	.LCFI19-.LCFI18
	.byte	0xb
	.byte	0x4
	.4byte	.LCFI20-.LCFI19
	.byte	0xe
	.uleb128 0xc
	.align	2
.LEFDE24:
.LSFDE26:
	.4byte	.LEFDE26-.LASFDE26
.LASFDE26:
	.4byte	.Lframe0
	.4byte	.LFB21
	.4byte	.LFE21-.LFB21
	.byte	0x4
	.4byte	.LCFI21-.LFB21
	.byte	0xe
	.uleb128 0x24
	.byte	0x84
	.uleb128 0x9
	.byte	0x85
	.uleb128 0x8
	.byte	0x86
	.uleb128 0x7
	.byte	0x87
	.uleb128 0x6
	.byte	0x88
	.uleb128 0x5
	.byte	0x89
	.uleb128 0x4
	.byte	0x8a
	.uleb128 0x3
	.byte	0x8b
	.uleb128 0x2
	.byte	0x8e
	.uleb128 0x1
	.byte	0x4
	.4byte	.LCFI22-.LCFI21
	.byte	0xe
	.uleb128 0xf8
	.byte	0x4
	.4byte	.LCFI23-.LCFI22
	.byte	0xa
	.byte	0xe
	.uleb128 0x24
	.byte	0x4
	.4byte	.LCFI24-.LCFI23
	.byte	0xb
	.align	2
.LEFDE26:
.LSFDE28:
	.4byte	.LEFDE28-.LASFDE28
.LASFDE28:
	.4byte	.Lframe0
	.4byte	.LFB22
	.4byte	.LFE22-.LFB22
	.byte	0x4
	.4byte	.LCFI25-.LFB22
	.byte	0xe
	.uleb128 0xc
	.byte	0x84
	.uleb128 0x3
	.byte	0x85
	.uleb128 0x2
	.byte	0x8e
	.uleb128 0x1
	.byte	0x4
	.4byte	.LCFI26-.LCFI25
	.byte	0xe
	.uleb128 0x50
	.byte	0x4
	.4byte	.LCFI27-.LCFI26
	.byte	0xe
	.uleb128 0xc
	.align	2
.LEFDE28:
.LSFDE30:
	.4byte	.LEFDE30-.LASFDE30
.LASFDE30:
	.4byte	.Lframe0
	.4byte	.LFB23
	.4byte	.LFE23-.LFB23
	.align	2
.LEFDE30:
.LSFDE32:
	.4byte	.LEFDE32-.LASFDE32
.LASFDE32:
	.4byte	.Lframe0
	.4byte	.LFB26
	.4byte	.LFE26-.LFB26
	.byte	0x4
	.4byte	.LCFI28-.LFB26
	.byte	0xe
	.uleb128 0x20
	.byte	0x84
	.uleb128 0x8
	.byte	0x85
	.uleb128 0x7
	.byte	0x86
	.uleb128 0x6
	.byte	0x87
	.uleb128 0x5
	.byte	0x88
	.uleb128 0x4
	.byte	0x89
	.uleb128 0x3
	.byte	0x8a
	.uleb128 0x2
	.byte	0x8e
	.uleb128 0x1
	.byte	0x4
	.4byte	.LCFI29-.LCFI28
	.byte	0xe
	.uleb128 0x68
	.byte	0x4
	.4byte	.LCFI30-.LCFI29
	.byte	0xa
	.byte	0xe
	.uleb128 0x20
	.byte	0x4
	.4byte	.LCFI31-.LCFI30
	.byte	0xb
	.align	2
.LEFDE32:
.LSFDE34:
	.4byte	.LEFDE34-.LASFDE34
.LASFDE34:
	.4byte	.Lframe0
	.4byte	.LFB27
	.4byte	.LFE27-.LFB27
	.byte	0x4
	.4byte	.LCFI32-.LFB27
	.byte	0xe
	.uleb128 0x18
	.byte	0x84
	.uleb128 0x6
	.byte	0x85
	.uleb128 0x5
	.byte	0x86
	.uleb128 0x4
	.byte	0x87
	.uleb128 0x3
	.byte	0x88
	.uleb128 0x2
	.byte	0x8e
	.uleb128 0x1
	.byte	0x4
	.4byte	.LCFI33-.LCFI32
	.byte	0xe
	.uleb128 0x40
	.byte	0x4
	.4byte	.LCFI34-.LCFI33
	.byte	0xe
	.uleb128 0x18
	.align	2
.LEFDE34:
.LSFDE36:
	.4byte	.LEFDE36-.LASFDE36
.LASFDE36:
	.4byte	.Lframe0
	.4byte	.LFB28
	.4byte	.LFE28-.LFB28
	.byte	0x4
	.4byte	.LCFI35-.LFB28
	.byte	0xe
	.uleb128 0x14
	.byte	0x84
	.uleb128 0x5
	.byte	0x85
	.uleb128 0x4
	.byte	0x86
	.uleb128 0x3
	.byte	0x87
	.uleb128 0x2
	.byte	0x8e
	.uleb128 0x1
	.byte	0x4
	.4byte	.LCFI36-.LCFI35
	.byte	0xe
	.uleb128 0x58
	.byte	0x4
	.4byte	.LCFI37-.LCFI36
	.byte	0xa
	.byte	0xe
	.uleb128 0x14
	.byte	0x4
	.4byte	.LCFI38-.LCFI37
	.byte	0xb
	.align	2
.LEFDE36:
.LSFDE38:
	.4byte	.LEFDE38-.LASFDE38
.LASFDE38:
	.4byte	.Lframe0
	.4byte	.LFB31
	.4byte	.LFE31-.LFB31
	.byte	0x4
	.4byte	.LCFI39-.LFB31
	.byte	0xe
	.uleb128 0x10
	.byte	0x83
	.uleb128 0x4
	.byte	0x84
	.uleb128 0x3
	.byte	0x85
	.uleb128 0x2
	.byte	0x8e
	.uleb128 0x1
	.align	2
.LEFDE38:
.LSFDE40:
	.4byte	.LEFDE40-.LASFDE40
.LASFDE40:
	.4byte	.Lframe0
	.4byte	.LFB30
	.4byte	.LFE30-.LFB30
	.byte	0x4
	.4byte	.LCFI40-.LFB30
	.byte	0xe
	.uleb128 0x10
	.byte	0x84
	.uleb128 0x4
	.byte	0x85
	.uleb128 0x3
	.byte	0x86
	.uleb128 0x2
	.byte	0x8e
	.uleb128 0x1
	.byte	0x4
	.4byte	.LCFI41-.LCFI40
	.byte	0xe
	.uleb128 0x38
	.byte	0x4
	.4byte	.LCFI42-.LCFI41
	.byte	0xa
	.byte	0xe
	.uleb128 0x10
	.byte	0x4
	.4byte	.LCFI43-.LCFI42
	.byte	0xb
	.align	2
.LEFDE40:
.LSFDE42:
	.4byte	.LEFDE42-.LASFDE42
.LASFDE42:
	.4byte	.Lframe0
	.4byte	.LFB33
	.4byte	.LFE33-.LFB33
	.byte	0x4
	.4byte	.LCFI44-.LFB33
	.byte	0xe
	.uleb128 0x14
	.byte	0x84
	.uleb128 0x5
	.byte	0x85
	.uleb128 0x4
	.byte	0x86
	.uleb128 0x3
	.byte	0x87
	.uleb128 0x2
	.byte	0x8e
	.uleb128 0x1
	.byte	0x4
	.4byte	.LCFI45-.LCFI44
	.byte	0xe
	.uleb128 0x30
	.byte	0x4
	.4byte	.LCFI46-.LCFI45
	.byte	0xa
	.byte	0xe
	.uleb128 0x14
	.byte	0x4
	.4byte	.LCFI47-.LCFI46
	.byte	0xb
	.align	2
.LEFDE42:
.LSFDE44:
	.4byte	.LEFDE44-.LASFDE44
.LASFDE44:
	.4byte	.Lframe0
	.4byte	.LFB35
	.4byte	.LFE35-.LFB35
	.byte	0x4
	.4byte	.LCFI48-.LFB35
	.byte	0xe
	.uleb128 0x20
	.byte	0x84
	.uleb128 0x8
	.byte	0x85
	.uleb128 0x7
	.byte	0x86
	.uleb128 0x6
	.byte	0x87
	.uleb128 0x5
	.byte	0x88
	.uleb128 0x4
	.byte	0x89
	.uleb128 0x3
	.byte	0x8a
	.uleb128 0x2
	.byte	0x8e
	.uleb128 0x1
	.byte	0x4
	.4byte	.LCFI49-.LCFI48
	.byte	0xe
	.uleb128 0x50
	.byte	0x4
	.4byte	.LCFI50-.LCFI49
	.byte	0xe
	.uleb128 0x20
	.align	2
.LEFDE44:
.LSFDE46:
	.4byte	.LEFDE46-.LASFDE46
.LASFDE46:
	.4byte	.Lframe0
	.4byte	.LFB40
	.4byte	.LFE40-.LFB40
	.byte	0x4
	.4byte	.LCFI51-.LFB40
	.byte	0xe
	.uleb128 0x18
	.byte	0x84
	.uleb128 0x6
	.byte	0x85
	.uleb128 0x5
	.byte	0x86
	.uleb128 0x4
	.byte	0x87
	.uleb128 0x3
	.byte	0x88
	.uleb128 0x2
	.byte	0x8e
	.uleb128 0x1
	.byte	0x4
	.4byte	.LCFI52-.LCFI51
	.byte	0xe
	.uleb128 0x38
	.byte	0x4
	.4byte	.LCFI53-.LCFI52
	.byte	0xe
	.uleb128 0x18
	.align	2
.LEFDE46:
.LSFDE48:
	.4byte	.LEFDE48-.LASFDE48
.LASFDE48:
	.4byte	.Lframe0
	.4byte	.LFB42
	.4byte	.LFE42-.LFB42
	.byte	0x4
	.4byte	.LCFI54-.LFB42
	.byte	0xe
	.uleb128 0x18
	.byte	0x84
	.uleb128 0x6
	.byte	0x85
	.uleb128 0x5
	.byte	0x86
	.uleb128 0x4
	.byte	0x87
	.uleb128 0x3
	.byte	0x89
	.uleb128 0x2
	.byte	0x8e
	.uleb128 0x1
	.byte	0x4
	.4byte	.LCFI55-.LCFI54
	.byte	0xe
	.uleb128 0x38
	.byte	0x4
	.4byte	.LCFI56-.LCFI55
	.byte	0xe
	.uleb128 0x18
	.align	2
.LEFDE48:
.LSFDE50:
	.4byte	.LEFDE50-.LASFDE50
.LASFDE50:
	.4byte	.Lframe0
	.4byte	.LFB45
	.4byte	.LFE45-.LFB45
	.byte	0x4
	.4byte	.LCFI57-.LFB45
	.byte	0xe
	.uleb128 0x18
	.byte	0x84
	.uleb128 0x4
	.byte	0x85
	.uleb128 0x3
	.byte	0x86
	.uleb128 0x2
	.byte	0x8e
	.uleb128 0x1
	.byte	0x4
	.4byte	.LCFI58-.LCFI57
	.byte	0xe
	.uleb128 0x10
	.align	2
.LEFDE50:
.LSFDE52:
	.4byte	.LEFDE52-.LASFDE52
.LASFDE52:
	.4byte	.Lframe0
	.4byte	.LFB47
	.4byte	.LFE47-.LFB47
	.byte	0x4
	.4byte	.LCFI59-.LFB47
	.byte	0xe
	.uleb128 0x18
	.byte	0x83
	.uleb128 0x6
	.byte	0x84
	.uleb128 0x5
	.byte	0x85
	.uleb128 0x4
	.byte	0x86
	.uleb128 0x3
	.byte	0x87
	.uleb128 0x2
	.byte	0x8e
	.uleb128 0x1
	.align	2
.LEFDE52:
.LSFDE54:
	.4byte	.LEFDE54-.LASFDE54
.LASFDE54:
	.4byte	.Lframe0
	.4byte	.LFB46
	.4byte	.LFE46-.LFB46
	.byte	0x4
	.4byte	.LCFI60-.LFB46
	.byte	0xe
	.uleb128 0x10
	.byte	0x84
	.uleb128 0x4
	.byte	0x85
	.uleb128 0x3
	.byte	0x86
	.uleb128 0x2
	.byte	0x8e
	.uleb128 0x1
	.byte	0x4
	.4byte	.LCFI61-.LCFI60
	.byte	0xe
	.uleb128 0x50
	.byte	0x4
	.4byte	.LCFI62-.LCFI61
	.byte	0xa
	.byte	0xe
	.uleb128 0x10
	.byte	0x4
	.4byte	.LCFI63-.LCFI62
	.byte	0xb
	.align	2
.LEFDE54:
.LSFDE56:
	.4byte	.LEFDE56-.LASFDE56
.LASFDE56:
	.4byte	.Lframe0
	.4byte	.LFB48
	.4byte	.LFE48-.LFB48
	.byte	0x4
	.4byte	.LCFI64-.LFB48
	.byte	0xe
	.uleb128 0x10
	.byte	0x84
	.uleb128 0x4
	.byte	0x85
	.uleb128 0x3
	.byte	0x86
	.uleb128 0x2
	.byte	0x8e
	.uleb128 0x1
	.byte	0x4
	.4byte	.LCFI65-.LCFI64
	.byte	0xe
	.uleb128 0x38
	.byte	0x4
	.4byte	.LCFI66-.LCFI65
	.byte	0xe
	.uleb128 0x10
	.align	2
.LEFDE56:
.LSFDE58:
	.4byte	.LEFDE58-.LASFDE58
.LASFDE58:
	.4byte	.Lframe0
	.4byte	.LFB50
	.4byte	.LFE50-.LFB50
	.byte	0x4
	.4byte	.LCFI67-.LFB50
	.byte	0xe
	.uleb128 0x20
	.byte	0x84
	.uleb128 0x8
	.byte	0x85
	.uleb128 0x7
	.byte	0x86
	.uleb128 0x6
	.byte	0x87
	.uleb128 0x5
	.byte	0x88
	.uleb128 0x4
	.byte	0x89
	.uleb128 0x3
	.byte	0x8a
	.uleb128 0x2
	.byte	0x8e
	.uleb128 0x1
	.byte	0x4
	.4byte	.LCFI68-.LCFI67
	.byte	0xe
	.uleb128 0x48
	.byte	0x4
	.4byte	.LCFI69-.LCFI68
	.byte	0xe
	.uleb128 0x20
	.align	2
.LEFDE58:
.LSFDE60:
	.4byte	.LEFDE60-.LASFDE60
.LASFDE60:
	.4byte	.Lframe0
	.4byte	.LFB51
	.4byte	.LFE51-.LFB51
	.byte	0x4
	.4byte	.LCFI70-.LFB51
	.byte	0xe
	.uleb128 0x20
	.byte	0x84
	.uleb128 0x8
	.byte	0x85
	.uleb128 0x7
	.byte	0x86
	.uleb128 0x6
	.byte	0x87
	.uleb128 0x5
	.byte	0x88
	.uleb128 0x4
	.byte	0x89
	.uleb128 0x3
	.byte	0x8a
	.uleb128 0x2
	.byte	0x8e
	.uleb128 0x1
	.byte	0x4
	.4byte	.LCFI71-.LCFI70
	.byte	0xe
	.uleb128 0x88
	.byte	0x4
	.4byte	.LCFI72-.LCFI71
	.byte	0xe
	.uleb128 0x20
	.align	2
.LEFDE60:
.LSFDE62:
	.4byte	.LEFDE62-.LASFDE62
.LASFDE62:
	.4byte	.Lframe0
	.4byte	.LFB53
	.4byte	.LFE53-.LFB53
	.byte	0x4
	.4byte	.LCFI73-.LFB53
	.byte	0xe
	.uleb128 0x20
	.byte	0x84
	.uleb128 0x5
	.byte	0x85
	.uleb128 0x4
	.byte	0x86
	.uleb128 0x3
	.byte	0x87
	.uleb128 0x2
	.byte	0x8e
	.uleb128 0x1
	.byte	0x4
	.4byte	.LCFI74-.LCFI73
	.byte	0xa
	.byte	0xe
	.uleb128 0x14
	.byte	0x4
	.4byte	.LCFI75-.LCFI74
	.byte	0xb
	.align	2
.LEFDE62:
.LSFDE64:
	.4byte	.LEFDE64-.LASFDE64
.LASFDE64:
	.4byte	.Lframe0
	.4byte	.LFB55
	.4byte	.LFE55-.LFB55
	.byte	0x4
	.4byte	.LCFI76-.LFB55
	.byte	0xe
	.uleb128 0x14
	.byte	0x84
	.uleb128 0x5
	.byte	0x85
	.uleb128 0x4
	.byte	0x86
	.uleb128 0x3
	.byte	0x87
	.uleb128 0x2
	.byte	0x8e
	.uleb128 0x1
	.align	2
.LEFDE64:
.LSFDE66:
	.4byte	.LEFDE66-.LASFDE66
.LASFDE66:
	.4byte	.Lframe0
	.4byte	.LFB56
	.4byte	.LFE56-.LFB56
	.byte	0x4
	.4byte	.LCFI77-.LFB56
	.byte	0xe
	.uleb128 0x18
	.byte	0x83
	.uleb128 0x6
	.byte	0x84
	.uleb128 0x5
	.byte	0x85
	.uleb128 0x4
	.byte	0x86
	.uleb128 0x3
	.byte	0x87
	.uleb128 0x2
	.byte	0x8e
	.uleb128 0x1
	.align	2
.LEFDE66:
.LSFDE68:
	.4byte	.LEFDE68-.LASFDE68
.LASFDE68:
	.4byte	.Lframe0
	.4byte	.LFB57
	.4byte	.LFE57-.LFB57
	.byte	0x4
	.4byte	.LCFI78-.LFB57
	.byte	0xe
	.uleb128 0x28
	.byte	0x83
	.uleb128 0xa
	.byte	0x84
	.uleb128 0x9
	.byte	0x85
	.uleb128 0x8
	.byte	0x86
	.uleb128 0x7
	.byte	0x87
	.uleb128 0x6
	.byte	0x88
	.uleb128 0x5
	.byte	0x89
	.uleb128 0x4
	.byte	0x8a
	.uleb128 0x3
	.byte	0x8b
	.uleb128 0x2
	.byte	0x8e
	.uleb128 0x1
	.align	2
.LEFDE68:
.LSFDE70:
	.4byte	.LEFDE70-.LASFDE70
.LASFDE70:
	.4byte	.Lframe0
	.4byte	.LFB65
	.4byte	.LFE65-.LFB65
	.byte	0x4
	.4byte	.LCFI79-.LFB65
	.byte	0xe
	.uleb128 0x20
	.byte	0x84
	.uleb128 0x8
	.byte	0x85
	.uleb128 0x7
	.byte	0x86
	.uleb128 0x6
	.byte	0x87
	.uleb128 0x5
	.byte	0x88
	.uleb128 0x4
	.byte	0x89
	.uleb128 0x3
	.byte	0x8a
	.uleb128 0x2
	.byte	0x8e
	.uleb128 0x1
	.byte	0x4
	.4byte	.LCFI80-.LCFI79
	.byte	0xa
	.byte	0xce
	.byte	0xca
	.byte	0xc9
	.byte	0xc8
	.byte	0xc7
	.byte	0xc6
	.byte	0xc5
	.byte	0xc4
	.byte	0xe
	.uleb128 0
	.byte	0x4
	.4byte	.LCFI81-.LCFI80
	.byte	0xb
	.align	2
.LEFDE70:
.LSFDE72:
	.4byte	.LEFDE72-.LASFDE72
.LASFDE72:
	.4byte	.Lframe0
	.4byte	.LFB68
	.4byte	.LFE68-.LFB68
	.byte	0x4
	.4byte	.LCFI82-.LFB68
	.byte	0xe
	.uleb128 0x10
	.byte	0x84
	.uleb128 0x4
	.byte	0x85
	.uleb128 0x3
	.byte	0x86
	.uleb128 0x2
	.byte	0x8e
	.uleb128 0x1
	.byte	0x4
	.4byte	.LCFI83-.LCFI82
	.byte	0xa
	.byte	0xce
	.byte	0xc6
	.byte	0xc5
	.byte	0xc4
	.byte	0xe
	.uleb128 0
	.byte	0x4
	.4byte	.LCFI84-.LCFI83
	.byte	0xb
	.align	2
.LEFDE72:
.LSFDE74:
	.4byte	.LEFDE74-.LASFDE74
.LASFDE74:
	.4byte	.Lframe0
	.4byte	.LFB69
	.4byte	.LFE69-.LFB69
	.align	2
.LEFDE74:
.LSFDE76:
	.4byte	.LEFDE76-.LASFDE76
.LASFDE76:
	.4byte	.Lframe0
	.4byte	.LFB70
	.4byte	.LFE70-.LFB70
	.byte	0x4
	.4byte	.LCFI85-.LFB70
	.byte	0xe
	.uleb128 0x10
	.byte	0x84
	.uleb128 0x4
	.byte	0x85
	.uleb128 0x3
	.byte	0x86
	.uleb128 0x2
	.byte	0x8e
	.uleb128 0x1
	.byte	0x4
	.4byte	.LCFI86-.LCFI85
	.byte	0xa
	.byte	0xce
	.byte	0xc6
	.byte	0xc5
	.byte	0xc4
	.byte	0xe
	.uleb128 0
	.byte	0x4
	.4byte	.LCFI87-.LCFI86
	.byte	0xb
	.align	2
.LEFDE76:
.LSFDE78:
	.4byte	.LEFDE78-.LASFDE78
.LASFDE78:
	.4byte	.Lframe0
	.4byte	.LFB71
	.4byte	.LFE71-.LFB71
	.byte	0x4
	.4byte	.LCFI88-.LFB71
	.byte	0xe
	.uleb128 0x10
	.byte	0x84
	.uleb128 0x4
	.byte	0x85
	.uleb128 0x3
	.byte	0x86
	.uleb128 0x2
	.byte	0x8e
	.uleb128 0x1
	.byte	0x4
	.4byte	.LCFI89-.LCFI88
	.byte	0xce
	.byte	0xc6
	.byte	0xc5
	.byte	0xc4
	.byte	0xe
	.uleb128 0
	.align	2
.LEFDE78:
.LSFDE80:
	.4byte	.LEFDE80-.LASFDE80
.LASFDE80:
	.4byte	.Lframe0
	.4byte	.LFB0
	.4byte	.LFE0-.LFB0
	.byte	0x4
	.4byte	.LCFI90-.LFB0
	.byte	0xe
	.uleb128 0x8
	.byte	0x83
	.uleb128 0x2
	.byte	0x8e
	.uleb128 0x1
	.align	2
.LEFDE80:
.LSFDE82:
	.4byte	.LEFDE82-.LASFDE82
.LASFDE82:
	.4byte	.Lframe0
	.4byte	.LFB24
	.4byte	.LFE24-.LFB24
	.byte	0x4
	.4byte	.LCFI91-.LFB24
	.byte	0xe
	.uleb128 0x10
	.byte	0x84
	.uleb128 0x4
	.byte	0x85
	.uleb128 0x3
	.byte	0x86
	.uleb128 0x2
	.byte	0x8e
	.uleb128 0x1
	.align	2
.LEFDE82:
.LSFDE84:
	.4byte	.LEFDE84-.LASFDE84
.LASFDE84:
	.4byte	.Lframe0
	.4byte	.LFB25
	.4byte	.LFE25-.LFB25
	.byte	0x4
	.4byte	.LCFI92-.LFB25
	.byte	0xe
	.uleb128 0x14
	.byte	0x84
	.uleb128 0x5
	.byte	0x85
	.uleb128 0x4
	.byte	0x86
	.uleb128 0x3
	.byte	0x87
	.uleb128 0x2
	.byte	0x8e
	.uleb128 0x1
	.byte	0x4
	.4byte	.LCFI93-.LCFI92
	.byte	0xe
	.uleb128 0x98
	.byte	0x4
	.4byte	.LCFI94-.LCFI93
	.byte	0xa
	.byte	0xe
	.uleb128 0x14
	.byte	0x4
	.4byte	.LCFI95-.LCFI94
	.byte	0xb
	.align	2
.LEFDE84:
.LSFDE86:
	.4byte	.LEFDE86-.LASFDE86
.LASFDE86:
	.4byte	.Lframe0
	.4byte	.LFB39
	.4byte	.LFE39-.LFB39
	.byte	0x4
	.4byte	.LCFI96-.LFB39
	.byte	0xe
	.uleb128 0x24
	.byte	0x84
	.uleb128 0x9
	.byte	0x85
	.uleb128 0x8
	.byte	0x86
	.uleb128 0x7
	.byte	0x87
	.uleb128 0x6
	.byte	0x88
	.uleb128 0x5
	.byte	0x89
	.uleb128 0x4
	.byte	0x8a
	.uleb128 0x3
	.byte	0x8b
	.uleb128 0x2
	.byte	0x8e
	.uleb128 0x1
	.byte	0x4
	.4byte	.LCFI97-.LCFI96
	.byte	0xe
	.uleb128 0x118
	.byte	0x4
	.4byte	.LCFI98-.LCFI97
	.byte	0xa
	.byte	0xe
	.uleb128 0x24
	.byte	0x4
	.4byte	.LCFI99-.LCFI98
	.byte	0xb
	.align	2
.LEFDE86:
.LSFDE88:
	.4byte	.LEFDE88-.LASFDE88
.LASFDE88:
	.4byte	.Lframe0
	.4byte	.LFB52
	.4byte	.LFE52-.LFB52
	.byte	0x4
	.4byte	.LCFI100-.LFB52
	.byte	0xe
	.uleb128 0x24
	.byte	0x84
	.uleb128 0x9
	.byte	0x85
	.uleb128 0x8
	.byte	0x86
	.uleb128 0x7
	.byte	0x87
	.uleb128 0x6
	.byte	0x88
	.uleb128 0x5
	.byte	0x89
	.uleb128 0x4
	.byte	0x8a
	.uleb128 0x3
	.byte	0x8b
	.uleb128 0x2
	.byte	0x8e
	.uleb128 0x1
	.byte	0x4
	.4byte	.LCFI101-.LCFI100
	.byte	0xe
	.uleb128 0xe8
	.byte	0x4
	.4byte	.LCFI102-.LCFI101
	.byte	0xa
	.byte	0xe
	.uleb128 0x24
	.byte	0x4
	.4byte	.LCFI103-.LCFI102
	.byte	0xb
	.align	2
.LEFDE88:
.LSFDE90:
	.4byte	.LEFDE90-.LASFDE90
.LASFDE90:
	.4byte	.Lframe0
	.4byte	.LFB54
	.4byte	.LFE54-.LFB54
	.byte	0x4
	.4byte	.LCFI104-.LFB54
	.byte	0xe
	.uleb128 0xc
	.byte	0x84
	.uleb128 0x3
	.byte	0x85
	.uleb128 0x2
	.byte	0x8e
	.uleb128 0x1
	.byte	0x4
	.4byte	.LCFI105-.LCFI104
	.byte	0xe
	.uleb128 0x60
	.byte	0x4
	.4byte	.LCFI106-.LCFI105
	.byte	0xe
	.uleb128 0xc
	.align	2
.LEFDE90:
.LSFDE92:
	.4byte	.LEFDE92-.LASFDE92
.LASFDE92:
	.4byte	.Lframe0
	.4byte	.LFB66
	.4byte	.LFE66-.LFB66
	.byte	0x4
	.4byte	.LCFI107-.LFB66
	.byte	0xe
	.uleb128 0x24
	.byte	0x84
	.uleb128 0x9
	.byte	0x85
	.uleb128 0x8
	.byte	0x86
	.uleb128 0x7
	.byte	0x87
	.uleb128 0x6
	.byte	0x88
	.uleb128 0x5
	.byte	0x89
	.uleb128 0x4
	.byte	0x8a
	.uleb128 0x3
	.byte	0x8b
	.uleb128 0x2
	.byte	0x8e
	.uleb128 0x1
	.byte	0x4
	.4byte	.LCFI108-.LCFI107
	.byte	0xe
	.uleb128 0x2c
	.byte	0x5
	.uleb128 0x50
	.uleb128 0xb
	.byte	0x5
	.uleb128 0x51
	.uleb128 0xa
	.byte	0x4
	.4byte	.LCFI109-.LCFI108
	.byte	0xe
	.uleb128 0xc8
	.byte	0x4
	.4byte	.LCFI110-.LCFI109
	.byte	0xa
	.byte	0xe
	.uleb128 0x2c
	.byte	0x4
	.4byte	.LCFI111-.LCFI110
	.byte	0x6
	.uleb128 0x50
	.byte	0x6
	.uleb128 0x51
	.byte	0xe
	.uleb128 0x24
	.byte	0x4
	.4byte	.LCFI112-.LCFI111
	.byte	0xb
	.align	2
.LEFDE92:
.LSFDE94:
	.4byte	.LEFDE94-.LASFDE94
.LASFDE94:
	.4byte	.Lframe0
	.4byte	.LFB44
	.4byte	.LFE44-.LFB44
	.byte	0x4
	.4byte	.LCFI113-.LFB44
	.byte	0xe
	.uleb128 0x1c
	.byte	0x84
	.uleb128 0x7
	.byte	0x85
	.uleb128 0x6
	.byte	0x86
	.uleb128 0x5
	.byte	0x87
	.uleb128 0x4
	.byte	0x88
	.uleb128 0x3
	.byte	0x89
	.uleb128 0x2
	.byte	0x8e
	.uleb128 0x1
	.byte	0x4
	.4byte	.LCFI114-.LCFI113
	.byte	0xe
	.uleb128 0x68
	.byte	0x4
	.4byte	.LCFI115-.LCFI114
	.byte	0xa
	.byte	0xe
	.uleb128 0x1c
	.byte	0x4
	.4byte	.LCFI116-.LCFI115
	.byte	0xb
	.align	2
.LEFDE94:
.LSFDE96:
	.4byte	.LEFDE96-.LASFDE96
.LASFDE96:
	.4byte	.Lframe0
	.4byte	.LFB4
	.4byte	.LFE4-.LFB4
	.align	2
.LEFDE96:
.LSFDE98:
	.4byte	.LEFDE98-.LASFDE98
.LASFDE98:
	.4byte	.Lframe0
	.4byte	.LFB5
	.4byte	.LFE5-.LFB5
	.align	2
.LEFDE98:
.LSFDE100:
	.4byte	.LEFDE100-.LASFDE100
.LASFDE100:
	.4byte	.Lframe0
	.4byte	.LFB6
	.4byte	.LFE6-.LFB6
	.align	2
.LEFDE100:
.LSFDE102:
	.4byte	.LEFDE102-.LASFDE102
.LASFDE102:
	.4byte	.Lframe0
	.4byte	.LFB7
	.4byte	.LFE7-.LFB7
	.align	2
.LEFDE102:
.LSFDE104:
	.4byte	.LEFDE104-.LASFDE104
.LASFDE104:
	.4byte	.Lframe0
	.4byte	.LFB29
	.4byte	.LFE29-.LFB29
	.align	2
.LEFDE104:
.LSFDE106:
	.4byte	.LEFDE106-.LASFDE106
.LASFDE106:
	.4byte	.Lframe0
	.4byte	.LFB32
	.4byte	.LFE32-.LFB32
	.align	2
.LEFDE106:
.LSFDE108:
	.4byte	.LEFDE108-.LASFDE108
.LASFDE108:
	.4byte	.Lframe0
	.4byte	.LFB34
	.4byte	.LFE34-.LFB34
	.align	2
.LEFDE108:
.LSFDE110:
	.4byte	.LEFDE110-.LASFDE110
.LASFDE110:
	.4byte	.Lframe0
	.4byte	.LFB41
	.4byte	.LFE41-.LFB41
	.align	2
.LEFDE110:
.LSFDE112:
	.4byte	.LEFDE112-.LASFDE112
.LASFDE112:
	.4byte	.Lframe0
	.4byte	.LFB43
	.4byte	.LFE43-.LFB43
	.align	2
.LEFDE112:
.LSFDE114:
	.4byte	.LEFDE114-.LASFDE114
.LASFDE114:
	.4byte	.Lframe0
	.4byte	.LFB58
	.4byte	.LFE58-.LFB58
	.byte	0x4
	.4byte	.LCFI117-.LFB58
	.byte	0xe
	.uleb128 0x18
	.byte	0x84
	.uleb128 0x6
	.byte	0x85
	.uleb128 0x5
	.byte	0x86
	.uleb128 0x4
	.byte	0x87
	.uleb128 0x3
	.byte	0x88
	.uleb128 0x2
	.byte	0x8e
	.uleb128 0x1
	.byte	0x4
	.4byte	.LCFI118-.LCFI117
	.byte	0xe
	.uleb128 0x78
	.byte	0x4
	.4byte	.LCFI119-.LCFI118
	.byte	0xa
	.byte	0xe
	.uleb128 0x18
	.byte	0x4
	.4byte	.LCFI120-.LCFI119
	.byte	0xb
	.align	2
.LEFDE114:
.LSFDE116:
	.4byte	.LEFDE116-.LASFDE116
.LASFDE116:
	.4byte	.Lframe0
	.4byte	.LFB59
	.4byte	.LFE59-.LFB59
	.byte	0x4
	.4byte	.LCFI121-.LFB59
	.byte	0xe
	.uleb128 0x20
	.byte	0x84
	.uleb128 0x8
	.byte	0x85
	.uleb128 0x7
	.byte	0x86
	.uleb128 0x6
	.byte	0x87
	.uleb128 0x5
	.byte	0x88
	.uleb128 0x4
	.byte	0x89
	.uleb128 0x3
	.byte	0x8a
	.uleb128 0x2
	.byte	0x8e
	.uleb128 0x1
	.byte	0x4
	.4byte	.LCFI122-.LCFI121
	.byte	0xe
	.uleb128 0xb8
	.byte	0x4
	.4byte	.LCFI123-.LCFI122
	.byte	0xe
	.uleb128 0x20
	.align	2
.LEFDE116:
.LSFDE118:
	.4byte	.LEFDE118-.LASFDE118
.LASFDE118:
	.4byte	.Lframe0
	.4byte	.LFB60
	.4byte	.LFE60-.LFB60
	.byte	0x4
	.4byte	.LCFI124-.LFB60
	.byte	0xe
	.uleb128 0xc
	.byte	0x84
	.uleb128 0x3
	.byte	0x85
	.uleb128 0x2
	.byte	0x8e
	.uleb128 0x1
	.align	2
.LEFDE118:
.LSFDE120:
	.4byte	.LEFDE120-.LASFDE120
.LASFDE120:
	.4byte	.Lframe0
	.4byte	.LFB61
	.4byte	.LFE61-.LFB61
	.byte	0x4
	.4byte	.LCFI125-.LFB61
	.byte	0xe
	.uleb128 0x18
	.byte	0x84
	.uleb128 0x6
	.byte	0x85
	.uleb128 0x5
	.byte	0x86
	.uleb128 0x4
	.byte	0x87
	.uleb128 0x3
	.byte	0x88
	.uleb128 0x2
	.byte	0x8e
	.uleb128 0x1
	.byte	0x4
	.4byte	.LCFI126-.LCFI125
	.byte	0xe
	.uleb128 0x58
	.byte	0x4
	.4byte	.LCFI127-.LCFI126
	.byte	0xe
	.uleb128 0x18
	.align	2
.LEFDE120:
.LSFDE122:
	.4byte	.LEFDE122-.LASFDE122
.LASFDE122:
	.4byte	.Lframe0
	.4byte	.LFB62
	.4byte	.LFE62-.LFB62
	.byte	0x4
	.4byte	.LCFI128-.LFB62
	.byte	0xe
	.uleb128 0x18
	.byte	0x84
	.uleb128 0x6
	.byte	0x85
	.uleb128 0x5
	.byte	0x86
	.uleb128 0x4
	.byte	0x87
	.uleb128 0x3
	.byte	0x88
	.uleb128 0x2
	.byte	0x8e
	.uleb128 0x1
	.byte	0x4
	.4byte	.LCFI129-.LCFI128
	.byte	0xe
	.uleb128 0x60
	.byte	0x4
	.4byte	.LCFI130-.LCFI129
	.byte	0xa
	.byte	0xe
	.uleb128 0x18
	.byte	0x4
	.4byte	.LCFI131-.LCFI130
	.byte	0xb
	.align	2
.LEFDE122:
.LSFDE124:
	.4byte	.LEFDE124-.LASFDE124
.LASFDE124:
	.4byte	.Lframe0
	.4byte	.LFB63
	.4byte	.LFE63-.LFB63
	.byte	0x4
	.4byte	.LCFI132-.LFB63
	.byte	0xe
	.uleb128 0xc
	.byte	0x84
	.uleb128 0x3
	.byte	0x85
	.uleb128 0x2
	.byte	0x8e
	.uleb128 0x1
	.byte	0x4
	.4byte	.LCFI133-.LCFI132
	.byte	0xe
	.uleb128 0x50
	.byte	0x4
	.4byte	.LCFI134-.LCFI133
	.byte	0xe
	.uleb128 0xc
	.align	2
.LEFDE124:
.LSFDE126:
	.4byte	.LEFDE126-.LASFDE126
.LASFDE126:
	.4byte	.Lframe0
	.4byte	.LFB64
	.4byte	.LFE64-.LFB64
	.byte	0x4
	.4byte	.LCFI135-.LFB64
	.byte	0xe
	.uleb128 0x10
	.byte	0x84
	.uleb128 0x4
	.byte	0x85
	.uleb128 0x3
	.byte	0x86
	.uleb128 0x2
	.byte	0x8e
	.uleb128 0x1
	.byte	0x4
	.4byte	.LCFI136-.LCFI135
	.byte	0xe
	.uleb128 0x70
	.byte	0x4
	.4byte	.LCFI137-.LCFI136
	.byte	0xa
	.byte	0xe
	.uleb128 0x10
	.byte	0x4
	.4byte	.LCFI138-.LCFI137
	.byte	0xb
	.align	2
.LEFDE126:
.LSFDE128:
	.4byte	.LEFDE128-.LASFDE128
.LASFDE128:
	.4byte	.Lframe0
	.4byte	.LFB67
	.4byte	.LFE67-.LFB67
	.byte	0x4
	.4byte	.LCFI139-.LFB67
	.byte	0xe
	.uleb128 0x20
	.byte	0x84
	.uleb128 0x8
	.byte	0x85
	.uleb128 0x7
	.byte	0x86
	.uleb128 0x6
	.byte	0x87
	.uleb128 0x5
	.byte	0x88
	.uleb128 0x4
	.byte	0x89
	.uleb128 0x3
	.byte	0x8a
	.uleb128 0x2
	.byte	0x8e
	.uleb128 0x1
	.byte	0x4
	.4byte	.LCFI140-.LCFI139
	.byte	0xe
	.uleb128 0x48
	.byte	0x4
	.4byte	.LCFI141-.LCFI140
	.byte	0xa
	.byte	0xe
	.uleb128 0x20
	.byte	0x4
	.4byte	.LCFI142-.LCFI141
	.byte	0xb
	.align	2
.LEFDE128:
.LSFDE130:
	.4byte	.LEFDE130-.LASFDE130
.LASFDE130:
	.4byte	.Lframe0
	.4byte	.LFB72
	.4byte	.LFE72-.LFB72
	.byte	0x4
	.4byte	.LCFI143-.LFB72
	.byte	0xe
	.uleb128 0x24
	.byte	0x84
	.uleb128 0x9
	.byte	0x85
	.uleb128 0x8
	.byte	0x86
	.uleb128 0x7
	.byte	0x87
	.uleb128 0x6
	.byte	0x88
	.uleb128 0x5
	.byte	0x89
	.uleb128 0x4
	.byte	0x8a
	.uleb128 0x3
	.byte	0x8b
	.uleb128 0x2
	.byte	0x8e
	.uleb128 0x1
	.byte	0x4
	.4byte	.LCFI144-.LCFI143
	.byte	0xe
	.uleb128 0x68
	.byte	0x4
	.4byte	.LCFI145-.LCFI144
	.byte	0xa
	.byte	0xe
	.uleb128 0x24
	.byte	0x4
	.4byte	.LCFI146-.LCFI145
	.byte	0xb
	.align	2
.LEFDE130:
.LSFDE132:
	.4byte	.LEFDE132-.LASFDE132
.LASFDE132:
	.4byte	.Lframe0
	.4byte	.LFB74
	.4byte	.LFE74-.LFB74
	.byte	0x4
	.4byte	.LCFI147-.LFB74
	.byte	0xe
	.uleb128 0x24
	.byte	0x84
	.uleb128 0x9
	.byte	0x85
	.uleb128 0x8
	.byte	0x86
	.uleb128 0x7
	.byte	0x87
	.uleb128 0x6
	.byte	0x88
	.uleb128 0x5
	.byte	0x89
	.uleb128 0x4
	.byte	0x8a
	.uleb128 0x3
	.byte	0x8b
	.uleb128 0x2
	.byte	0x8e
	.uleb128 0x1
	.byte	0x4
	.4byte	.LCFI148-.LCFI147
	.byte	0xe
	.uleb128 0x2c
	.byte	0x5
	.uleb128 0x50
	.uleb128 0xb
	.byte	0x5
	.uleb128 0x51
	.uleb128 0xa
	.byte	0x4
	.4byte	.LCFI149-.LCFI148
	.byte	0xe
	.uleb128 0x218
	.byte	0x4
	.4byte	.LCFI150-.LCFI149
	.byte	0xa
	.byte	0xe
	.uleb128 0x2c
	.byte	0x4
	.4byte	.LCFI151-.LCFI150
	.byte	0x6
	.uleb128 0x50
	.byte	0x6
	.uleb128 0x51
	.byte	0xe
	.uleb128 0x24
	.byte	0x4
	.4byte	.LCFI152-.LCFI151
	.byte	0xb
	.align	2
.LEFDE132:
	.text
.Letext0:
	.file 5 "/usr/share/segger_embedded_studio_for_arm_4.42/include/stdint.h"
	.file 6 "/home/matteo/Desktop/Reti di Sensori Wireless per IOT/Progetto/nrf5_SDK_for_Mesh_v4.0.0_src/external/micro-ecc/uECC.h"
	.file 7 "/home/matteo/Desktop/Reti di Sensori Wireless per IOT/Progetto/nrf5_SDK_for_Mesh_v4.0.0_src/external/micro-ecc/types.h"
	.file 8 "<built-in>"
	.file 9 "../../../../../../../nrf5_SDK_for_Mesh_v4.0.0_src/mesh/core/include/rand.h"